(dp0
S'Binance'
p1
(dp2
VZIL/ETH
p3
S'https://coinmarketcap.com/currencies/zilliqa/'
p4
sVCMT/ETH
p5
S'https://coinmarketcap.com/currencies/cybermiles/'
p6
sVCMT/BNB
p7
S'https://coinmarketcap.com/currencies/cybermiles/'
p8
sVNANO/BNB
p9
S'https://coinmarketcap.com/currencies/nano/'
p10
sVMDA/BTC
p11
S'https://coinmarketcap.com/currencies/moeda-loyalty-points/'
p12
sVFUEL/BTC
p13
S'https://coinmarketcap.com/currencies/etherparty/'
p14
sVSTORM/ETH
p15
S'https://coinmarketcap.com/currencies/storm/'
p16
sVLRC/ETH
p17
S'https://coinmarketcap.com/currencies/loopring/'
p18
sVLEND/ETH
p19
S'https://coinmarketcap.com/currencies/ethlend/'
p20
sVBAT/BTC
p21
S'https://coinmarketcap.com/currencies/basic-attention-token/'
p22
sVCDT/BTC
p23
S'https://coinmarketcap.com/currencies/blox/'
p24
sVWAVES/ETH
p25
S'https://coinmarketcap.com/currencies/waves/'
p26
sVZIL/BTC
p27
S'https://coinmarketcap.com/currencies/zilliqa/'
p28
sVTNT/ETH
p29
S'https://coinmarketcap.com/currencies/tierion/'
p30
sVDASH/ETH
p31
S'https://coinmarketcap.com/currencies/dash/'
p32
sVBNB/BTC
p33
S'https://coinmarketcap.com/currencies/binance-coin/'
p34
sVPIVX/BTC
p35
S'https://coinmarketcap.com/currencies/pivx/'
p36
sVSNGLS/BTC
p37
S'https://coinmarketcap.com/currencies/singulardtv/'
p38
sVSUB/BTC
p39
S'https://coinmarketcap.com/currencies/substratum/'
p40
sVWABI/BTC
p41
S'https://coinmarketcap.com/currencies/wabi/'
p42
sVTRX/BTC
p43
S'https://coinmarketcap.com/currencies/tron/'
p44
sVWAVES/BTC
p45
S'https://coinmarketcap.com/currencies/waves/'
p46
sVBTC/USDT
p47
S'https://coinmarketcap.com/currencies/bitcoin/'
p48
sVXZC/BNB
p49
S'https://coinmarketcap.com/currencies/zcoin/'
p50
sVKMD/BTC
p51
S'https://coinmarketcap.com/currencies/komodo/'
p52
sVBCC/BNB
p53
S'https://coinmarketcap.com/currencies/bitcoin-cash/'
p54
sVTRIG/BNB
p55
S'https://coinmarketcap.com/currencies/triggers/'
p56
sVBNT/BTC
p57
S'https://coinmarketcap.com/currencies/bancor/'
p58
sVDNT/ETH
p59
S'https://coinmarketcap.com/currencies/district0x/'
p60
sVBQX/ETH
p61
S'https://coinmarketcap.com/currencies/ethos/'
p62
sVBRD/BTC
p63
S'https://coinmarketcap.com/currencies/bread/'
p64
sVWINGS/BTC
p65
S'https://coinmarketcap.com/currencies/wings/'
p66
sVXMR/BTC
p67
S'https://coinmarketcap.com/currencies/monero/'
p68
sVNCASH/BNB
p69
S'https://coinmarketcap.com/currencies/nucleus-vision/'
p70
sVCTR/ETH
p71
S'https://coinmarketcap.com/currencies/centra/'
p72
sVBCD/BTC
p73
S'https://coinmarketcap.com/currencies/bitcoin-diamond/'
p74
sVPOA/BTC
p75
S'https://coinmarketcap.com/currencies/poa-network/'
p76
sVNAV/BNB
p77
S'https://coinmarketcap.com/currencies/nav-coin/'
p78
sVWABI/ETH
p79
S'https://coinmarketcap.com/currencies/wabi/'
p80
sVPPT/BTC
p81
S'https://coinmarketcap.com/currencies/populous/'
p82
sVPPT/ETH
p83
S'https://coinmarketcap.com/currencies/populous/'
p84
sVBAT/BNB
p85
S'https://coinmarketcap.com/currencies/basic-attention-token/'
p86
sVENJ/ETH
p87
S'https://coinmarketcap.com/currencies/enjin-coin/'
p88
sVNULS/BNB
p89
S'https://coinmarketcap.com/currencies/nuls/'
p90
sVONT/ETH
p91
S'https://coinmarketcap.com/currencies/ontology/'
p92
sVAION/ETH
p93
S'https://coinmarketcap.com/currencies/aion/'
p94
sVVIBE/BTC
p95
S'https://coinmarketcap.com/currencies/vibe/'
p96
sVKNC/BTC
p97
S'https://coinmarketcap.com/currencies/kyber-network/'
p98
sVETH/BTC
p99
S'https://coinmarketcap.com/currencies/ethereum/'
p100
sVENG/BTC
p101
S'https://coinmarketcap.com/currencies/enigma-project/'
p102
sVNAV/BTC
p103
S'https://coinmarketcap.com/currencies/nav-coin/'
p104
sVQTUM/BTC
p105
S'https://coinmarketcap.com/currencies/qtum/'
p106
sVBTG/BTC
p107
S'https://coinmarketcap.com/currencies/bitcoin-gold/'
p108
sVBCC/ETH
p109
S'https://coinmarketcap.com/currencies/bitcoin-cash/'
p110
sVMCO/BTC
p111
S'https://coinmarketcap.com/currencies/monaco/'
p112
sVSALT/ETH
p113
S'https://coinmarketcap.com/currencies/salt/'
p114
sVFUN/BTC
p115
S'https://coinmarketcap.com/currencies/funfair/'
p116
sVLSK/ETH
p117
S'https://coinmarketcap.com/currencies/lisk/'
p118
sVBCC/BTC
p119
S'https://coinmarketcap.com/currencies/bitcoin-cash/'
p120
sVONT/BNB
p121
S'https://coinmarketcap.com/currencies/ontology/'
p122
sVVEN/BNB
p123
S'https://coinmarketcap.com/currencies/vechain/'
p124
sVSNT/BTC
p125
S'https://coinmarketcap.com/currencies/status/'
p126
sVLUN/BTC
p127
S'https://coinmarketcap.com/currencies/lunyr/'
p128
sVQSP/ETH
p129
S'https://coinmarketcap.com/currencies/quantstamp/'
p130
sVDLT/BTC
p131
S'https://coinmarketcap.com/currencies/agrello-delta/'
p132
sVWTC/BTC
p133
S'https://coinmarketcap.com/currencies/waltonchain/'
p134
sVARN/ETH
p135
S'https://coinmarketcap.com/currencies/aeron/'
p136
sVMTH/BTC
p137
S'https://coinmarketcap.com/currencies/monetha/'
p138
sVLEND/BTC
p139
S'https://coinmarketcap.com/currencies/ethlend/'
p140
sVAPPC/ETH
p141
S'https://coinmarketcap.com/currencies/appcoins/'
p142
sVQSP/BTC
p143
S'https://coinmarketcap.com/currencies/quantstamp/'
p144
sVLTC/USDT
p145
S'https://coinmarketcap.com/currencies/litecoin/'
p146
sVGXS/ETH
p147
S'https://coinmarketcap.com/currencies/gxchain/'
p148
sVRPX/BNB
p149
S'https://coinmarketcap.com/currencies/red-pulse/'
p150
sVETH/USDT
p151
S'https://coinmarketcap.com/currencies/ethereum/'
p152
sVICX/ETH
p153
S'https://coinmarketcap.com/currencies/icon/'
p154
sVWTC/BNB
p155
S'https://coinmarketcap.com/currencies/waltonchain/'
p156
sVNULS/BTC
p157
S'https://coinmarketcap.com/currencies/nuls/'
p158
sVRCN/BNB
p159
S'https://coinmarketcap.com/currencies/ripio-credit-network/'
p160
sVBRD/BNB
p161
S'https://coinmarketcap.com/currencies/bread/'
p162
sVNCASH/ETH
p163
S'https://coinmarketcap.com/currencies/nucleus-vision/'
p164
sVOST/ETH
p165
S'https://coinmarketcap.com/currencies/simple-token/'
p166
sVDNT/BTC
p167
S'https://coinmarketcap.com/currencies/district0x/'
p168
sVKMD/ETH
p169
S'https://coinmarketcap.com/currencies/komodo/'
p170
sVHSR/ETH
p171
S'https://coinmarketcap.com/currencies/hshare/'
p172
sVIOTA/ETH
p173
S'https://coinmarketcap.com/currencies/iota/'
p174
sVENJ/BTC
p175
S'https://coinmarketcap.com/currencies/enjin-coin/'
p176
sVDLT/ETH
p177
S'https://coinmarketcap.com/currencies/agrello-delta/'
p178
sVYOYO/BTC
p179
S'https://coinmarketcap.com/currencies/yoyow/'
p180
sVEDO/ETH
p181
S'https://coinmarketcap.com/currencies/eidoo/'
p182
sVAMB/ETH
p183
S'https://coinmarketcap.com/currencies/amber/'
p184
sVBCPT/BNB
p185
S'https://coinmarketcap.com/currencies/blockmason/'
p186
sVARK/BTC
p187
S'https://coinmarketcap.com/currencies/ark/'
p188
sVLTC/BTC
p189
S'https://coinmarketcap.com/currencies/litecoin/'
p190
sVGTO/BTC
p191
S'https://coinmarketcap.com/currencies/gifto/'
p192
sVGVT/BTC
p193
S'https://coinmarketcap.com/currencies/genesis-vision/'
p194
sVBLZ/BTC
p195
S'https://coinmarketcap.com/currencies/bluzelle/'
p196
sVNEBL/BNB
p197
S'https://coinmarketcap.com/currencies/neblio/'
p198
sVMCO/BNB
p199
S'https://coinmarketcap.com/currencies/monaco/'
p200
sVXRP/ETH
p201
S'https://coinmarketcap.com/currencies/ripple/'
p202
sVMTL/BTC
p203
S'https://coinmarketcap.com/currencies/metal/'
p204
sVXMR/ETH
p205
S'https://coinmarketcap.com/currencies/monero/'
p206
sVNEO/ETH
p207
S'https://coinmarketcap.com/currencies/neo/'
p208
sVXVG/ETH
p209
S'https://coinmarketcap.com/currencies/verge/'
p210
sVPOWR/ETH
p211
S'https://coinmarketcap.com/currencies/power-ledger/'
p212
sVXLM/ETH
p213
S'https://coinmarketcap.com/currencies/stellar/'
p214
sVMOD/ETH
p215
S'https://coinmarketcap.com/currencies/modum/'
p216
sVEOS/ETH
p217
S'https://coinmarketcap.com/currencies/eos/'
p218
sVFUEL/ETH
p219
S'https://coinmarketcap.com/currencies/etherparty/'
p220
sVREQ/ETH
p221
S'https://coinmarketcap.com/currencies/request-network/'
p222
sVAMB/BNB
p223
S'https://coinmarketcap.com/currencies/amber/'
p224
sVRDN/BTC
p225
S'https://coinmarketcap.com/currencies/raiden-network-token/'
p226
sVDASH/BTC
p227
S'https://coinmarketcap.com/currencies/dash/'
p228
sVONT/BTC
p229
S'https://coinmarketcap.com/currencies/ontology/'
p230
sVAST/BTC
p231
S'https://coinmarketcap.com/currencies/airswap/'
p232
sVQSP/BNB
p233
S'https://coinmarketcap.com/currencies/quantstamp/'
p234
sVBCPT/ETH
p235
S'https://coinmarketcap.com/currencies/blockmason/'
p236
sVLSK/BNB
p237
S'https://coinmarketcap.com/currencies/lisk/'
p238
sVAST/ETH
p239
S'https://coinmarketcap.com/currencies/airswap/'
p240
sVPOA/BNB
p241
S'https://coinmarketcap.com/currencies/poa-network/'
p242
sVXZC/BTC
p243
S'https://coinmarketcap.com/currencies/zcoin/'
p244
sVPOE/ETH
p245
S'https://coinmarketcap.com/currencies/poet/'
p246
sVRLC/BNB
p247
S'https://coinmarketcap.com/currencies/rlc/'
p248
sVCHAT/BTC
p249
S'https://coinmarketcap.com/currencies/chatcoin/'
p250
sVVIB/BTC
p251
S'https://coinmarketcap.com/currencies/viberate/'
p252
sVETC/BTC
p253
S'https://coinmarketcap.com/currencies/ethereum-classic/'
p254
sVGTO/ETH
p255
S'https://coinmarketcap.com/currencies/gifto/'
p256
sVPIVX/BNB
p257
S'https://coinmarketcap.com/currencies/pivx/'
p258
sVMANA/BTC
p259
S'https://coinmarketcap.com/currencies/decentraland/'
p260
sVMTL/ETH
p261
S'https://coinmarketcap.com/currencies/metal/'
p262
sVBNB/ETH
p263
S'https://coinmarketcap.com/currencies/binance-coin/'
p264
sVETC/ETH
p265
S'https://coinmarketcap.com/currencies/ethereum-classic/'
p266
sVSTRAT/BTC
p267
S'https://coinmarketcap.com/currencies/stratis/'
p268
sVVEN/ETH
p269
S'https://coinmarketcap.com/currencies/vechain/'
p270
sVAE/BNB
p271
S'https://coinmarketcap.com/currencies/aeternity/'
p272
sVEOS/BTC
p273
S'https://coinmarketcap.com/currencies/eos/'
p274
sVNEO/BTC
p275
S'https://coinmarketcap.com/currencies/neo/'
p276
sVMOD/BTC
p277
S'https://coinmarketcap.com/currencies/modum/'
p278
sVINS/ETH
p279
S'https://coinmarketcap.com/currencies/ins-ecosystem/'
p280
sVSUB/ETH
p281
S'https://coinmarketcap.com/currencies/substratum/'
p282
sVVIA/BNB
p283
S'https://coinmarketcap.com/currencies/viacoin/'
p284
sVWINGS/ETH
p285
S'https://coinmarketcap.com/currencies/wings/'
p286
sVCTR/BTC
p287
S'https://coinmarketcap.com/currencies/centra/'
p288
sVINS/BTC
p289
S'https://coinmarketcap.com/currencies/ins-ecosystem/'
p290
sVXLM/BTC
p291
S'https://coinmarketcap.com/currencies/stellar/'
p292
sVOST/BTC
p293
S'https://coinmarketcap.com/currencies/simple-token/'
p294
sVLTC/BNB
p295
S'https://coinmarketcap.com/currencies/litecoin/'
p296
sVBTS/BNB
p297
S'https://coinmarketcap.com/currencies/bitshares/'
p298
sVDGD/ETH
p299
S'https://coinmarketcap.com/currencies/digixdao/'
p300
sVBCPT/BTC
p301
S'https://coinmarketcap.com/currencies/blockmason/'
p302
sVBRD/ETH
p303
S'https://coinmarketcap.com/currencies/bread/'
p304
sVNULS/ETH
p305
S'https://coinmarketcap.com/currencies/nuls/'
p306
sVCND/BTC
p307
S'https://coinmarketcap.com/currencies/cindicator/'
p308
sVBNT/ETH
p309
S'https://coinmarketcap.com/currencies/bancor/'
p310
sVBLZ/BNB
p311
S'https://coinmarketcap.com/currencies/bluzelle/'
p312
sVRLC/BTC
p313
S'https://coinmarketcap.com/currencies/rlc/'
p314
sVADA/BTC
p315
S'https://coinmarketcap.com/currencies/cardano/'
p316
sVRLC/ETH
p317
S'https://coinmarketcap.com/currencies/rlc/'
p318
sVADA/ETH
p319
S'https://coinmarketcap.com/currencies/cardano/'
p320
sVICX/BNB
p321
S'https://coinmarketcap.com/currencies/icon/'
p322
sVMDA/ETH
p323
S'https://coinmarketcap.com/currencies/moeda-loyalty-points/'
p324
sVTRIG/ETH
p325
S'https://coinmarketcap.com/currencies/triggers/'
p326
sVSTORM/BTC
p327
S'https://coinmarketcap.com/currencies/storm/'
p328
sVPIVX/ETH
p329
S'https://coinmarketcap.com/currencies/pivx/'
p330
sVTNT/BTC
p331
S'https://coinmarketcap.com/currencies/tierion/'
p332
sVBQX/BTC
p333
S'https://coinmarketcap.com/currencies/ethos/'
p334
sVWTC/ETH
p335
S'https://coinmarketcap.com/currencies/waltonchain/'
p336
sVGAS/BTC
p337
S'https://coinmarketcap.com/currencies/gas/'
p338
sVRDN/BNB
p339
S'https://coinmarketcap.com/currencies/raiden-network-token/'
p340
sVLRC/BTC
p341
S'https://coinmarketcap.com/currencies/loopring/'
p342
sVAE/ETH
p343
S'https://coinmarketcap.com/currencies/aeternity/'
p344
sVICN/ETH
p345
S'https://coinmarketcap.com/currencies/iconomi/'
p346
sVADX/BTC
p347
S'https://coinmarketcap.com/currencies/adx-net/'
p348
sVEVX/ETH
p349
S'https://coinmarketcap.com/currencies/everex/'
p350
sVIOST/ETH
p351
S'https://coinmarketcap.com/currencies/iostoken/'
p352
sVVIA/BTC
p353
S'https://coinmarketcap.com/currencies/viacoin/'
p354
sVOMG/ETH
p355
S'https://coinmarketcap.com/currencies/omisego/'
p356
sVRPX/BTC
p357
S'https://coinmarketcap.com/currencies/red-pulse/'
p358
sVTRIG/BTC
p359
S'https://coinmarketcap.com/currencies/triggers/'
p360
sVSNM/BTC
p361
S'https://coinmarketcap.com/currencies/sonm/'
p362
sVLINK/ETH
p363
S'https://coinmarketcap.com/currencies/chainlink/'
p364
sVENG/ETH
p365
S'https://coinmarketcap.com/currencies/enigma-project/'
p366
sVNANO/BTC
p367
S'https://coinmarketcap.com/currencies/nano/'
p368
sVOAX/ETH
p369
S'https://coinmarketcap.com/currencies/oax/'
p370
sVHSR/BTC
p371
S'https://coinmarketcap.com/currencies/hshare/'
p372
sVBNB/USDT
p373
S'https://coinmarketcap.com/currencies/binance-coin/'
p374
sVSNT/ETH
p375
S'https://coinmarketcap.com/currencies/status/'
p376
sVRCN/ETH
p377
S'https://coinmarketcap.com/currencies/ripio-credit-network/'
p378
sVBTS/ETH
p379
S'https://coinmarketcap.com/currencies/bitshares/'
p380
sVNAV/ETH
p381
S'https://coinmarketcap.com/currencies/nav-coin/'
p382
sVCND/BNB
p383
S'https://coinmarketcap.com/currencies/cindicator/'
p384
sVZIL/BNB
p385
S'https://coinmarketcap.com/currencies/zilliqa/'
p386
sVOAX/BTC
p387
S'https://coinmarketcap.com/currencies/oax/'
p388
sVAE/BTC
p389
S'https://coinmarketcap.com/currencies/aeternity/'
p390
sVICN/BTC
p391
S'https://coinmarketcap.com/currencies/iconomi/'
p392
sVSNGLS/ETH
p393
S'https://coinmarketcap.com/currencies/singulardtv/'
p394
sVSTEEM/BNB
p395
S'https://coinmarketcap.com/currencies/steem/'
p396
sVCDT/ETH
p397
S'https://coinmarketcap.com/currencies/blox/'
p398
sVWABI/BNB
p399
S'https://coinmarketcap.com/currencies/wabi/'
p400
sVSTEEM/ETH
p401
S'https://coinmarketcap.com/currencies/steem/'
p402
sVDGD/BTC
p403
S'https://coinmarketcap.com/currencies/digixdao/'
p404
sVYOYO/ETH
p405
S'https://coinmarketcap.com/currencies/yoyow/'
p406
sVSTEEM/BTC
p407
S'https://coinmarketcap.com/currencies/steem/'
p408
sVLUN/ETH
p409
S'https://coinmarketcap.com/currencies/lunyr/'
p410
sVSALT/BTC
p411
S'https://coinmarketcap.com/currencies/salt/'
p412
sVNEBL/BTC
p413
S'https://coinmarketcap.com/currencies/neblio/'
p414
sVAION/BNB
p415
S'https://coinmarketcap.com/currencies/aion/'
p416
sVMCO/ETH
p417
S'https://coinmarketcap.com/currencies/monaco/'
p418
sVLSK/BTC
p419
S'https://coinmarketcap.com/currencies/lisk/'
p420
sVMANA/ETH
p421
S'https://coinmarketcap.com/currencies/decentraland/'
p422
sVIOST/BTC
p423
S'https://coinmarketcap.com/currencies/iostoken/'
p424
sVEVX/BTC
p425
S'https://coinmarketcap.com/currencies/everex/'
p426
sVADX/ETH
p427
S'https://coinmarketcap.com/currencies/adx-net/'
p428
sVAMB/BTC
p429
S'https://coinmarketcap.com/currencies/amber/'
p430
sVGXS/BTC
p431
S'https://coinmarketcap.com/currencies/gxchain/'
p432
sVLTC/ETH
p433
S'https://coinmarketcap.com/currencies/litecoin/'
p434
sVXZC/ETH
p435
S'https://coinmarketcap.com/currencies/zcoin/'
p436
sVLINK/BTC
p437
S'https://coinmarketcap.com/currencies/chainlink/'
p438
sVNCASH/BTC
p439
S'https://coinmarketcap.com/currencies/nucleus-vision/'
p440
sVRDN/ETH
p441
S'https://coinmarketcap.com/currencies/raiden-network-token/'
p442
sVWAVES/BNB
p443
S'https://coinmarketcap.com/currencies/waves/'
p444
sVIOTA/BTC
p445
S'https://coinmarketcap.com/currencies/iota/'
p446
sVCMT/BTC
p447
S'https://coinmarketcap.com/currencies/cybermiles/'
p448
sVELF/ETH
p449
S'https://coinmarketcap.com/currencies/aelf/'
p450
sVBCD/ETH
p451
S'https://coinmarketcap.com/currencies/bitcoin-diamond/'
p452
sVARN/BTC
p453
S'https://coinmarketcap.com/currencies/aeron/'
p454
sVCHAT/ETH
p455
S'https://coinmarketcap.com/currencies/chatcoin/'
p456
sVELF/BTC
p457
S'https://coinmarketcap.com/currencies/aelf/'
p458
sVSTORJ/ETH
p459
S'https://coinmarketcap.com/currencies/storj/'
p460
sVARK/ETH
p461
S'https://coinmarketcap.com/currencies/ark/'
p462
sVSTORJ/BTC
p463
S'https://coinmarketcap.com/currencies/storj/'
p464
sVBCC/USDT
p465
S'https://coinmarketcap.com/currencies/bitcoin-cash/'
p466
sVQTUM/ETH
p467
S'https://coinmarketcap.com/currencies/qtum/'
p468
sVNEO/BNB
p469
S'https://coinmarketcap.com/currencies/neo/'
p470
sVTNB/BTC
p471
S'https://coinmarketcap.com/currencies/time-new-bank/'
p472
sVNEBL/ETH
p473
S'https://coinmarketcap.com/currencies/neblio/'
p474
sVTNB/ETH
p475
S'https://coinmarketcap.com/currencies/time-new-bank/'
p476
sVVEN/BTC
p477
S'https://coinmarketcap.com/currencies/vechain/'
p478
sVVIBE/ETH
p479
S'https://coinmarketcap.com/currencies/vibe/'
p480
sVBTS/BTC
p481
S'https://coinmarketcap.com/currencies/bitshares/'
p482
sVZRX/BTC
p483
S'https://coinmarketcap.com/currencies/0x/'
p484
sVFUN/ETH
p485
S'https://coinmarketcap.com/currencies/funfair/'
p486
sVTRX/ETH
p487
S'https://coinmarketcap.com/currencies/tron/'
p488
sVGVT/ETH
p489
S'https://coinmarketcap.com/currencies/genesis-vision/'
p490
sVPOA/ETH
p491
S'https://coinmarketcap.com/currencies/poa-network/'
p492
sVPOWR/BNB
p493
S'https://coinmarketcap.com/currencies/power-ledger/'
p494
sVEDO/BTC
p495
S'https://coinmarketcap.com/currencies/eidoo/'
p496
sVICX/BTC
p497
S'https://coinmarketcap.com/currencies/icon/'
p498
sVBLZ/ETH
p499
S'https://coinmarketcap.com/currencies/bluzelle/'
p500
sVOST/BNB
p501
S'https://coinmarketcap.com/currencies/simple-token/'
p502
sVVIA/ETH
p503
S'https://coinmarketcap.com/currencies/viacoin/'
p504
sVRCN/BTC
p505
S'https://coinmarketcap.com/currencies/ripio-credit-network/'
p506
sVSTORM/BNB
p507
S'https://coinmarketcap.com/currencies/storm/'
p508
sVREQ/BTC
p509
S'https://coinmarketcap.com/currencies/request-network/'
p510
sVBAT/ETH
p511
S'https://coinmarketcap.com/currencies/basic-attention-token/'
p512
sVADX/BNB
p513
S'https://coinmarketcap.com/currencies/adx-net/'
p514
sVXRP/BTC
p515
S'https://coinmarketcap.com/currencies/ripple/'
p516
sVKNC/ETH
p517
S'https://coinmarketcap.com/currencies/kyber-network/'
p518
sVYOYO/BNB
p519
S'https://coinmarketcap.com/currencies/yoyow/'
p520
sVAION/BTC
p521
S'https://coinmarketcap.com/currencies/aion/'
p522
sVBTG/ETH
p523
S'https://coinmarketcap.com/currencies/bitcoin-gold/'
p524
sVZEC/BTC
p525
S'https://coinmarketcap.com/currencies/zcash/'
p526
sVPOWR/BTC
p527
S'https://coinmarketcap.com/currencies/power-ledger/'
p528
sVCND/ETH
p529
S'https://coinmarketcap.com/currencies/cindicator/'
p530
sVAPPC/BTC
p531
S'https://coinmarketcap.com/currencies/appcoins/'
p532
sVZEC/ETH
p533
S'https://coinmarketcap.com/currencies/zcash/'
p534
sVIOTA/BNB
p535
S'https://coinmarketcap.com/currencies/iota/'
p536
sVXLM/BNB
p537
S'https://coinmarketcap.com/currencies/stellar/'
p538
sVVIB/ETH
p539
S'https://coinmarketcap.com/currencies/viberate/'
p540
sVXVG/BTC
p541
S'https://coinmarketcap.com/currencies/verge/'
p542
sVAPPC/BNB
p543
S'https://coinmarketcap.com/currencies/appcoins/'
p544
sVRPX/ETH
p545
S'https://coinmarketcap.com/currencies/red-pulse/'
p546
sVGTO/BNB
p547
S'https://coinmarketcap.com/currencies/gifto/'
p548
sVNEO/USDT
p549
S'https://coinmarketcap.com/currencies/neo/'
p550
sVSNM/ETH
p551
S'https://coinmarketcap.com/currencies/sonm/'
p552
sVPOE/BTC
p553
S'https://coinmarketcap.com/currencies/poet/'
p554
sVDLT/BNB
p555
S'https://coinmarketcap.com/currencies/agrello-delta/'
p556
sVOMG/BTC
p557
S'https://coinmarketcap.com/currencies/omisego/'
p558
sVMTH/ETH
p559
S'https://coinmarketcap.com/currencies/monetha/'
p560
sVZRX/ETH
p561
S'https://coinmarketcap.com/currencies/0x/'
p562
sVNANO/ETH
p563
S'https://coinmarketcap.com/currencies/nano/'
p564
sVSTRAT/ETH
p565
S'https://coinmarketcap.com/currencies/stratis/'
p566
ssS'Huobi'
p567
(dp568
VLET/ETH
p569
S'https://coinmarketcap.com/currencies/linkeye/'
p570
sVYEE/ETH
p571
S'https://coinmarketcap.com/currencies/yee/'
p572
sVZIL/ETH
p573
S'https://coinmarketcap.com/currencies/zilliqa/'
p574
sVCMT/ETH
p575
S'https://coinmarketcap.com/currencies/cybermiles/'
p576
sVTNT/ETH
p577
S'https://coinmarketcap.com/currencies/tierion/'
p578
sVVEN/USDT
p579
S'https://coinmarketcap.com/currencies/vechain/'
p580
sVRUFF/ETH
p581
S'https://coinmarketcap.com/currencies/ruff/'
p582
sVTOPC/ETH
p583
S'https://coinmarketcap.com/currencies/topchain/'
p584
sVPAY/ETH
p585
S'https://coinmarketcap.com/currencies/tenx/'
p586
sVZIL/USDT
p587
S'https://coinmarketcap.com/currencies/zilliqa/'
p588
sVBAT/BTC
p589
S'https://coinmarketcap.com/currencies/basic-attention-token/'
p590
sVOMG/USDT
p591
S'https://coinmarketcap.com/currencies/omisego/'
p592
sVZIL/BTC
p593
S'https://coinmarketcap.com/currencies/zilliqa/'
p594
sVSNT/USDT
p595
S'https://coinmarketcap.com/currencies/status/'
p596
sVAIDOC/BTC
p597
S'https://coinmarketcap.com/currencies/aidoc/'
p598
sVDASH/BTC
p599
S'https://coinmarketcap.com/currencies/dash/'
p600
sVSMT/BTC
p601
S'https://coinmarketcap.com/currencies/smartmesh/'
p602
sVHT/USDT
p603
S'https://coinmarketcap.com/currencies/huobi-token/'
p604
sVXEM/USDT
p605
S'https://coinmarketcap.com/currencies/nem/'
p606
sVBTC/USDT
p607
S'https://coinmarketcap.com/currencies/bitcoin/'
p608
sVTHETA/BTC
p609
S'https://coinmarketcap.com/currencies/theta-token/'
p610
sVDBC/ETH
p611
S'https://coinmarketcap.com/currencies/deepbrain-chain/'
p612
sVZRX/BTC
p613
S'https://coinmarketcap.com/currencies/0x/'
p614
sVBCH/BTC
p615
S'https://coinmarketcap.com/currencies/bitcoin-cash/'
p616
sVBCH/USDT
p617
S'https://coinmarketcap.com/currencies/bitcoin-cash/'
p618
sVQASH/BTC
p619
S'https://coinmarketcap.com/currencies/qash/'
p620
sVTHETA/USDT
p621
S'https://coinmarketcap.com/currencies/theta-token/'
p622
sVBCD/BTC
p623
S'https://coinmarketcap.com/currencies/bitcoin-diamond/'
p624
sVMDS/BTC
p625
S'https://coinmarketcap.com/currencies/medishares/'
p626
sVSWFTC/ETH
p627
S'https://coinmarketcap.com/currencies/swftcoin/'
p628
sVRDN/ETH
p629
S'https://coinmarketcap.com/currencies/raiden-network-token/'
p630
sVUTK/ETH
p631
S'https://coinmarketcap.com/currencies/utrust/'
p632
sVEKO/ETH
p633
S'https://coinmarketcap.com/currencies/echolink/'
p634
sVKNC/BTC
p635
S'https://coinmarketcap.com/currencies/kyber-network/'
p636
sVETH/BTC
p637
S'https://coinmarketcap.com/currencies/ethereum/'
p638
sVBLZ/BTC
p639
S'https://coinmarketcap.com/currencies/bluzelle/'
p640
sVQTUM/BTC
p641
S'https://coinmarketcap.com/currencies/qtum/'
p642
sVBTG/BTC
p643
S'https://coinmarketcap.com/currencies/bitcoin-gold/'
p644
sVMCO/BTC
p645
S'https://coinmarketcap.com/currencies/monaco/'
p646
sVWPR/BTC
p647
S'https://coinmarketcap.com/currencies/wepower/'
p648
sVSALT/ETH
p649
S'https://coinmarketcap.com/currencies/salt/'
p650
sVACT/ETH
p651
S'https://coinmarketcap.com/currencies/achain/'
p652
sVPAY/BTC
p653
S'https://coinmarketcap.com/currencies/tenx/'
p654
sVNAS/ETH
p655
S'https://coinmarketcap.com/currencies/nebulas-token/'
p656
sVSOC/BTC
p657
S'https://coinmarketcap.com/currencies/all-sports/'
p658
sVRUFF/USDT
p659
S'https://coinmarketcap.com/currencies/ruff/'
p660
sVLUN/BTC
p661
S'https://coinmarketcap.com/currencies/lunyr/'
p662
sVSMT/USDT
p663
S'https://coinmarketcap.com/currencies/smartmesh/'
p664
sVLET/USDT
p665
S'https://coinmarketcap.com/currencies/linkeye/'
p666
sVAPPC/ETH
p667
S'https://coinmarketcap.com/currencies/appcoins/'
p668
sVLTC/USDT
p669
S'https://coinmarketcap.com/currencies/litecoin/'
p670
sVXEM/BTC
p671
S'https://coinmarketcap.com/currencies/nem/'
p672
sVDTA/ETH
p673
S'https://coinmarketcap.com/currencies/data/'
p674
sVELA/ETH
p675
S'https://coinmarketcap.com/currencies/elastos/'
p676
sVETH/USDT
p677
S'https://coinmarketcap.com/currencies/ethereum/'
p678
sVICX/ETH
p679
S'https://coinmarketcap.com/currencies/icon/'
p680
sVMDS/ETH
p681
S'https://coinmarketcap.com/currencies/medishares/'
p682
sVMTN/ETH
p683
S'https://coinmarketcap.com/currencies/medical-chain/'
p684
sVMTN/BTC
p685
S'https://coinmarketcap.com/currencies/medical-chain/'
p686
sVAIDOC/ETH
p687
S'https://coinmarketcap.com/currencies/aidoc/'
p688
sVLSK/ETH
p689
S'https://coinmarketcap.com/currencies/lisk/'
p690
sVSNC/ETH
p691
S'https://coinmarketcap.com/currencies/suncontract/'
p692
sVHSR/ETH
p693
S'https://coinmarketcap.com/currencies/hshare/'
p694
sVZLA/ETH
p695
S'https://coinmarketcap.com/currencies/zilla/'
p696
sVITC/ETH
p697
S'https://coinmarketcap.com/currencies/iot-chain/'
p698
sVELF/USDT
p699
S'https://coinmarketcap.com/currencies/aelf/'
p700
sVXRP/USDT
p701
S'https://coinmarketcap.com/currencies/ripple/'
p702
sVLTC/BTC
p703
S'https://coinmarketcap.com/currencies/litecoin/'
p704
sVENG/BTC
p705
S'https://coinmarketcap.com/currencies/enigma-project/'
p706
sVGNT/ETH
p707
S'https://coinmarketcap.com/currencies/golem-network-tokens/'
p708
sVCVC/ETH
p709
S'https://coinmarketcap.com/currencies/civic/'
p710
sVMTL/BTC
p711
S'https://coinmarketcap.com/currencies/metal/'
p712
sVSWFTC/BTC
p713
S'https://coinmarketcap.com/currencies/swftcoin/'
p714
sVPOWR/ETH
p715
S'https://coinmarketcap.com/currencies/power-ledger/'
p716
sVEOS/ETH
p717
S'https://coinmarketcap.com/currencies/eos/'
p718
sVPROPY/ETH
p719
S'https://coinmarketcap.com/currencies/propy/'
p720
sVEOS/USDT
p721
S'https://coinmarketcap.com/currencies/eos/'
p722
sVSALT/BTC
p723
S'https://coinmarketcap.com/currencies/salt/'
p724
sVSMT/ETH
p725
S'https://coinmarketcap.com/currencies/smartmesh/'
p726
sVRDN/BTC
p727
S'https://coinmarketcap.com/currencies/raiden-network-token/'
p728
sVDAT/BTC
p729
S'https://coinmarketcap.com/currencies/datum/'
p730
sVONT/BTC
p731
S'https://coinmarketcap.com/currencies/ontology/'
p732
sVAST/BTC
p733
S'https://coinmarketcap.com/currencies/airswap/'
p734
sVCHAT/ETH
p735
S'https://coinmarketcap.com/currencies/chatcoin/'
p736
sVICX/BTC
p737
S'https://coinmarketcap.com/currencies/icon/'
p738
sVQSP/ETH
p739
S'https://coinmarketcap.com/currencies/quantstamp/'
p740
sVCHAT/BTC
p741
S'https://coinmarketcap.com/currencies/chatcoin/'
p742
sVETC/BTC
p743
S'https://coinmarketcap.com/currencies/ethereum-classic/'
p744
sVREQ/BTC
p745
S'https://coinmarketcap.com/currencies/request-network/'
p746
sVMANA/BTC
p747
S'https://coinmarketcap.com/currencies/decentraland/'
p748
sVDTA/BTC
p749
S'https://coinmarketcap.com/currencies/data/'
p750
sVOST/BTC
p751
S'https://coinmarketcap.com/currencies/simple-token/'
p752
sVREQ/ETH
p753
S'https://coinmarketcap.com/currencies/request-network/'
p754
sVVEN/ETH
p755
S'https://coinmarketcap.com/currencies/vechain/'
p756
sVCVC/USDT
p757
S'https://coinmarketcap.com/currencies/civic/'
p758
sVTRX/BTC
p759
S'https://coinmarketcap.com/currencies/tron/'
p760
sVEOS/BTC
p761
S'https://coinmarketcap.com/currencies/eos/'
p762
sVNEO/BTC
p763
S'https://coinmarketcap.com/currencies/neo/'
p764
sVOCN/BTC
p765
S'https://coinmarketcap.com/currencies/odyssey/'
p766
sVMEE/ETH
p767
S'https://coinmarketcap.com/currencies/coinmeet/'
p768
sVOCN/ETH
p769
S'https://coinmarketcap.com/currencies/odyssey/'
p770
sVETC/USDT
p771
S'https://coinmarketcap.com/currencies/ethereum-classic/'
p772
sVRPX/BTC
p773
S'https://coinmarketcap.com/currencies/red-pulse/'
p774
sVLET/BTC
p775
S'https://coinmarketcap.com/currencies/linkeye/'
p776
sVGAS/BTC
p777
S'https://coinmarketcap.com/currencies/gas/'
p778
sVCVC/BTC
p779
S'https://coinmarketcap.com/currencies/civic/'
p780
sVDBC/BTC
p781
S'https://coinmarketcap.com/currencies/deepbrain-chain/'
p782
sVRUFF/BTC
p783
S'https://coinmarketcap.com/currencies/ruff/'
p784
sVBTM/BTC
p785
S'https://coinmarketcap.com/currencies/bytom/'
p786
sVOMG/BTC
p787
S'https://coinmarketcap.com/currencies/omisego/'
p788
sVTHETA/ETH
p789
S'https://coinmarketcap.com/currencies/theta-token/'
p790
sVDGD/ETH
p791
S'https://coinmarketcap.com/currencies/digixdao/'
p792
sVSRN/ETH
p793
S'https://coinmarketcap.com/currencies/sirin-labs-token/'
p794
sVSBTC/BTC
p795
S'https://coinmarketcap.com/currencies/super-bitcoin/'
p796
sVSOC/ETH
p797
S'https://coinmarketcap.com/currencies/all-sports/'
p798
sVWAX/BTC
p799
S'https://coinmarketcap.com/currencies/wax/'
p800
sVWAX/ETH
p801
S'https://coinmarketcap.com/currencies/wax/'
p802
sVGAS/ETH
p803
S'https://coinmarketcap.com/currencies/gas/'
p804
sVTNT/BTC
p805
S'https://coinmarketcap.com/currencies/tierion/'
p806
sVRCN/ETH
p807
S'https://coinmarketcap.com/currencies/ripio-credit-network/'
p808
sVOST/ETH
p809
S'https://coinmarketcap.com/currencies/simple-token/'
p810
sVTRX/USDT
p811
S'https://coinmarketcap.com/currencies/tron/'
p812
sVSNC/BTC
p813
S'https://coinmarketcap.com/currencies/suncontract/'
p814
sVEKO/BTC
p815
S'https://coinmarketcap.com/currencies/echolink/'
p816
sVSRN/BTC
p817
S'https://coinmarketcap.com/currencies/sirin-labs-token/'
p818
sVADX/BTC
p819
S'https://coinmarketcap.com/currencies/adx-net/'
p820
sVEVX/ETH
p821
S'https://coinmarketcap.com/currencies/everex/'
p822
sVIOST/ETH
p823
S'https://coinmarketcap.com/currencies/iostoken/'
p824
sVOMG/ETH
p825
S'https://coinmarketcap.com/currencies/omisego/'
p826
sVIOST/BTC
p827
S'https://coinmarketcap.com/currencies/iostoken/'
p828
sVBTM/ETH
p829
S'https://coinmarketcap.com/currencies/bytom/'
p830
sVENG/ETH
p831
S'https://coinmarketcap.com/currencies/enigma-project/'
p832
sVONT/ETH
p833
S'https://coinmarketcap.com/currencies/ontology/'
p834
sVHSR/BTC
p835
S'https://coinmarketcap.com/currencies/hshare/'
p836
sVPROPY/BTC
p837
S'https://coinmarketcap.com/currencies/propy/'
p838
sVDASH/USDT
p839
S'https://coinmarketcap.com/currencies/dash/'
p840
sVELA/USDT
p841
S'https://coinmarketcap.com/currencies/elastos/'
p842
sVBCX/BTC
p843
S'https://coinmarketcap.com/currencies/bitcoinx/'
p844
sVSNT/BTC
p845
S'https://coinmarketcap.com/currencies/status/'
p846
sVACT/BTC
p847
S'https://coinmarketcap.com/currencies/achain/'
p848
sVYEE/BTC
p849
S'https://coinmarketcap.com/currencies/yee/'
p850
sVGNX/ETH
p851
S'https://coinmarketcap.com/currencies/genaro-network/'
p852
sVHSR/USDT
p853
S'https://coinmarketcap.com/currencies/hshare/'
p854
sVDGD/BTC
p855
S'https://coinmarketcap.com/currencies/digixdao/'
p856
sVQTUM/USDT
p857
S'https://coinmarketcap.com/currencies/qtum/'
p858
sVLUN/ETH
p859
S'https://coinmarketcap.com/currencies/lunyr/'
p860
sVAPPC/BTC
p861
S'https://coinmarketcap.com/currencies/appcoins/'
p862
sVWICC/BTC
p863
S'https://coinmarketcap.com/currencies/waykichain/'
p864
sVQASH/ETH
p865
S'https://coinmarketcap.com/currencies/qash/'
p866
sVMCO/ETH
p867
S'https://coinmarketcap.com/currencies/monaco/'
p868
sVLSK/BTC
p869
S'https://coinmarketcap.com/currencies/lisk/'
p870
sVMANA/ETH
p871
S'https://coinmarketcap.com/currencies/decentraland/'
p872
sVQUN/BTC
p873
S'https://coinmarketcap.com/currencies/qunqun/'
p874
sVBLZ/ETH
p875
S'https://coinmarketcap.com/currencies/bluzelle/'
p876
sVADX/ETH
p877
S'https://coinmarketcap.com/currencies/adx-net/'
p878
sVMTX/ETH
p879
S'https://coinmarketcap.com/currencies/matryx/'
p880
sVELF/BTC
p881
S'https://coinmarketcap.com/currencies/aelf/'
p882
sVLINK/BTC
p883
S'https://coinmarketcap.com/currencies/chainlink/'
p884
sVTOPC/BTC
p885
S'https://coinmarketcap.com/currencies/topchain/'
p886
sVGNT/BTC
p887
S'https://coinmarketcap.com/currencies/golem-network-tokens/'
p888
sVCMT/BTC
p889
S'https://coinmarketcap.com/currencies/cybermiles/'
p890
sVELF/ETH
p891
S'https://coinmarketcap.com/currencies/aelf/'
p892
sVIOST/USDT
p893
S'https://coinmarketcap.com/currencies/iostoken/'
p894
sVSTORJ/BTC
p895
S'https://coinmarketcap.com/currencies/storj/'
p896
sVWPR/ETH
p897
S'https://coinmarketcap.com/currencies/wepower/'
p898
sVQTUM/ETH
p899
S'https://coinmarketcap.com/currencies/qtum/'
p900
sVTNB/BTC
p901
S'https://coinmarketcap.com/currencies/time-new-bank/'
p902
sVTNB/ETH
p903
S'https://coinmarketcap.com/currencies/time-new-bank/'
p904
sVVEN/BTC
p905
S'https://coinmarketcap.com/currencies/vechain/'
p906
sVUTK/BTC
p907
S'https://coinmarketcap.com/currencies/utrust/'
p908
sVSTK/BTC
p909
S'https://coinmarketcap.com/currencies/stk/'
p910
sVZLA/BTC
p911
S'https://coinmarketcap.com/currencies/zilla/'
p912
sVTRX/ETH
p913
S'https://coinmarketcap.com/currencies/tron/'
p914
sVGNT/USDT
p915
S'https://coinmarketcap.com/currencies/golem-network-tokens/'
p916
sVITC/BTC
p917
S'https://coinmarketcap.com/currencies/iot-chain/'
p918
sVQSP/BTC
p919
S'https://coinmarketcap.com/currencies/quantstamp/'
p920
sVABT/ETH
p921
S'https://coinmarketcap.com/currencies/arcblock/'
p922
sVRCN/BTC
p923
S'https://coinmarketcap.com/currencies/ripio-credit-network/'
p924
sVDTA/USDT
p925
S'https://coinmarketcap.com/currencies/data/'
p926
sVBAT/ETH
p927
S'https://coinmarketcap.com/currencies/basic-attention-token/'
p928
sVQUN/ETH
p929
S'https://coinmarketcap.com/currencies/qunqun/'
p930
sVXRP/BTC
p931
S'https://coinmarketcap.com/currencies/ripple/'
p932
sVZEC/USDT
p933
S'https://coinmarketcap.com/currencies/zcash/'
p934
sVWICC/ETH
p935
S'https://coinmarketcap.com/currencies/waykichain/'
p936
sVMTX/BTC
p937
S'https://coinmarketcap.com/currencies/matryx/'
p938
sVABT/BTC
p939
S'https://coinmarketcap.com/currencies/arcblock/'
p940
sVZEC/BTC
p941
S'https://coinmarketcap.com/currencies/zcash/'
p942
sVPOWR/BTC
p943
S'https://coinmarketcap.com/currencies/power-ledger/'
p944
sVSTORJ/USDT
p945
S'https://coinmarketcap.com/currencies/storj/'
p946
sVEVX/BTC
p947
S'https://coinmarketcap.com/currencies/everex/'
p948
sVHT/ETH
p949
S'https://coinmarketcap.com/currencies/huobi-token/'
p950
sVELA/BTC
p951
S'https://coinmarketcap.com/currencies/elastos/'
p952
sVMEE/BTC
p953
S'https://coinmarketcap.com/currencies/coinmeet/'
p954
sVNAS/BTC
p955
S'https://coinmarketcap.com/currencies/nebulas-token/'
p956
sVSTK/ETH
p957
S'https://coinmarketcap.com/currencies/stk/'
p958
sVGNX/BTC
p959
S'https://coinmarketcap.com/currencies/genaro-network/'
p960
sVNEO/USDT
p961
S'https://coinmarketcap.com/currencies/neo/'
p962
sVHT/BTC
p963
S'https://coinmarketcap.com/currencies/huobi-token/'
p964
sVLINK/ETH
p965
S'https://coinmarketcap.com/currencies/chainlink/'
p966
sVDAT/ETH
p967
S'https://coinmarketcap.com/currencies/datum/'
p968
ssS'Bitfinex'
p969
(dp970
VEOS/USD
p971
S'https://coinmarketcap.com/currencies/eos/'
p972
sVETH/USD
p973
S'https://coinmarketcap.com/currencies/ethereum/'
p974
sVMIOTA/ETH
p975
S'https://coinmarketcap.com/currencies/iota/'
p976
sVETP/BTC
p977
S'https://coinmarketcap.com/currencies/metaverse/'
p978
sVZEC/BTC
p979
S'https://coinmarketcap.com/currencies/zcash/'
p980
sVQTUM/USD
p981
S'https://coinmarketcap.com/currencies/qtum/'
p982
sVETP/USD
p983
S'https://coinmarketcap.com/currencies/metaverse/'
p984
sVDASH/BTC
p985
S'https://coinmarketcap.com/currencies/dash/'
p986
sVBCH/USD
p987
S'https://coinmarketcap.com/currencies/bitcoin-cash/'
p988
sVQTUM/ETH
p989
S'https://coinmarketcap.com/currencies/qtum/'
p990
sVMIOTA/EUR
p991
S'https://coinmarketcap.com/currencies/iota/'
p992
sVXMR/USD
p993
S'https://coinmarketcap.com/currencies/monero/'
p994
sVBCH/ETH
p995
S'https://coinmarketcap.com/currencies/bitcoin-cash/'
p996
sVBCH/BTC
p997
S'https://coinmarketcap.com/currencies/bitcoin-cash/'
p998
sVLTC/BTC
p999
S'https://coinmarketcap.com/currencies/litecoin/'
p1000
sVXMR/BTC
p1001
S'https://coinmarketcap.com/currencies/monero/'
p1002
sVLTC/USD
p1003
S'https://coinmarketcap.com/currencies/litecoin/'
p1004
sVNEO/ETH
p1005
S'https://coinmarketcap.com/currencies/neo/'
p1006
sVNEO/USD
p1007
S'https://coinmarketcap.com/currencies/neo/'
p1008
sVDASH/USD
p1009
S'https://coinmarketcap.com/currencies/dash/'
p1010
sVETP/ETH
p1011
S'https://coinmarketcap.com/currencies/metaverse/'
p1012
sVEOS/ETH
p1013
S'https://coinmarketcap.com/currencies/eos/'
p1014
sVXRP/BTC
p1015
S'https://coinmarketcap.com/currencies/ripple/'
p1016
sVMIOTA/BTC
p1017
S'https://coinmarketcap.com/currencies/iota/'
p1018
sVBTG/USD
p1019
S'https://coinmarketcap.com/currencies/bitcoin-gold/'
p1020
sVBTC/USD
p1021
S'https://coinmarketcap.com/currencies/bitcoin/'
p1022
sVETC/USD
p1023
S'https://coinmarketcap.com/currencies/ethereum-classic/'
p1024
sVETH/BTC
p1025
S'https://coinmarketcap.com/currencies/ethereum/'
p1026
sVXRP/USD
p1027
S'https://coinmarketcap.com/currencies/ripple/'
p1028
sVQTUM/BTC
p1029
S'https://coinmarketcap.com/currencies/qtum/'
p1030
sVBTG/BTC
p1031
S'https://coinmarketcap.com/currencies/bitcoin-gold/'
p1032
sVZEC/USD
p1033
S'https://coinmarketcap.com/currencies/zcash/'
p1034
sVETC/BTC
p1035
S'https://coinmarketcap.com/currencies/ethereum-classic/'
p1036
sVBTC/EUR
p1037
S'https://coinmarketcap.com/currencies/bitcoin/'
p1038
sVMIOTA/USD
p1039
S'https://coinmarketcap.com/currencies/iota/'
p1040
sVEOS/BTC
p1041
S'https://coinmarketcap.com/currencies/eos/'
p1042
sVNEO/BTC
p1043
S'https://coinmarketcap.com/currencies/neo/'
p1044
ssS'Upbit'
p1045
(dp1046
VSC/BTC
p1047
S'https://coinmarketcap.com/currencies/siacoin/'
p1048
sVKORE/BTC
p1049
S'https://coinmarketcap.com/currencies/korecoin/'
p1050
sVOMG/KRW
p1051
S'https://coinmarketcap.com/currencies/omisego/'
p1052
sVQTUM/ETH
p1053
S'https://coinmarketcap.com/currencies/qtum/'
p1054
sVPAY/ETH
p1055
S'https://coinmarketcap.com/currencies/tenx/'
p1056
sVKMD/KRW
p1057
S'https://coinmarketcap.com/currencies/komodo/'
p1058
sVBAT/BTC
p1059
S'https://coinmarketcap.com/currencies/basic-attention-token/'
p1060
sVSBD/KRW
p1061
S'https://coinmarketcap.com/currencies/steem-dollars/'
p1062
sVOMG/USDT
p1063
S'https://coinmarketcap.com/currencies/omisego/'
p1064
sVVEE/ETH
p1065
S'https://coinmarketcap.com/currencies/blockv/'
p1066
sVDCR/BTC
p1067
S'https://coinmarketcap.com/currencies/decred/'
p1068
sVSNT/ETH
p1069
S'https://coinmarketcap.com/currencies/status/'
p1070
sVGUP/BTC
p1071
S'https://coinmarketcap.com/currencies/guppy/'
p1072
sVDASH/ETH
p1073
S'https://coinmarketcap.com/currencies/dash/'
p1074
sVRADS/BTC
p1075
S'https://coinmarketcap.com/currencies/radium/'
p1076
sVPIVX/BTC
p1077
S'https://coinmarketcap.com/currencies/pivx/'
p1078
sVSTRAT/KRW
p1079
S'https://coinmarketcap.com/currencies/stratis/'
p1080
sVETH/KRW
p1081
S'https://coinmarketcap.com/currencies/ethereum/'
p1082
sVLBC/BTC
p1083
S'https://coinmarketcap.com/currencies/library-credit/'
p1084
sVDGB/BTC
p1085
S'https://coinmarketcap.com/currencies/digibyte/'
p1086
sVGBYTE/BTC
p1087
S'https://coinmarketcap.com/currencies/byteball/'
p1088
sVWAVES/BTC
p1089
S'https://coinmarketcap.com/currencies/waves/'
p1090
sVBTC/USDT
p1091
S'https://coinmarketcap.com/currencies/bitcoin/'
p1092
sVXEM/ETH
p1093
S'https://coinmarketcap.com/currencies/nem/'
p1094
sVKMD/BTC
p1095
S'https://coinmarketcap.com/currencies/komodo/'
p1096
sVTIX/ETH
p1097
S'https://coinmarketcap.com/currencies/blocktix/'
p1098
sVBNT/BTC
p1099
S'https://coinmarketcap.com/currencies/bancor/'
p1100
sVWINGS/BTC
p1101
S'https://coinmarketcap.com/currencies/wings/'
p1102
sVXMR/BTC
p1103
S'https://coinmarketcap.com/currencies/monero/'
p1104
sVVEE/BTC
p1105
S'https://coinmarketcap.com/currencies/blockv/'
p1106
sVDCT/BTC
p1107
S'https://coinmarketcap.com/currencies/decent/'
p1108
sVEDG/BTC
p1109
S'https://coinmarketcap.com/currencies/edgeless/'
p1110
sVION/BTC
p1111
S'https://coinmarketcap.com/currencies/ion/'
p1112
sVSPHR/BTC
p1113
S'https://coinmarketcap.com/currencies/sphere/'
p1114
sVXDN/BTC
p1115
S'https://coinmarketcap.com/currencies/digitalnote/'
p1116
sVVRC/BTC
p1117
S'https://coinmarketcap.com/currencies/vericoin/'
p1118
sVVOX/BTC
p1119
S'https://coinmarketcap.com/currencies/voxels/'
p1120
sVSNT/KRW
p1121
S'https://coinmarketcap.com/currencies/status/'
p1122
sVETH/BTC
p1123
S'https://coinmarketcap.com/currencies/ethereum/'
p1124
sVADA/USDT
p1125
S'https://coinmarketcap.com/currencies/cardano/'
p1126
sVNAV/BTC
p1127
S'https://coinmarketcap.com/currencies/nav-coin/'
p1128
sVQTUM/BTC
p1129
S'https://coinmarketcap.com/currencies/qtum/'
p1130
sVBTG/BTC
p1131
S'https://coinmarketcap.com/currencies/bitcoin-gold/'
p1132
sVBCC/ETH
p1133
S'https://coinmarketcap.com/currencies/bitcoin-cash/'
p1134
sVMCO/BTC
p1135
S'https://coinmarketcap.com/currencies/monaco/'
p1136
sVPART/BTC
p1137
S'https://coinmarketcap.com/currencies/particl/'
p1138
sVZEN/BTC
p1139
S'https://coinmarketcap.com/currencies/zencash/'
p1140
sVVTC/KRW
p1141
S'https://coinmarketcap.com/currencies/vertcoin/'
p1142
sVPAY/BTC
p1143
S'https://coinmarketcap.com/currencies/tenx/'
p1144
sVBCC/BTC
p1145
S'https://coinmarketcap.com/currencies/bitcoin-cash/'
p1146
sVVTC/BTC
p1147
S'https://coinmarketcap.com/currencies/vertcoin/'
p1148
sVGNT/ETH
p1149
S'https://coinmarketcap.com/currencies/golem-network-tokens/'
p1150
sVBAY/BTC
p1151
S'https://coinmarketcap.com/currencies/bitbay/'
p1152
sVQTUM/KRW
p1153
S'https://coinmarketcap.com/currencies/qtum/'
p1154
sVNMR/ETH
p1155
S'https://coinmarketcap.com/currencies/numeraire/'
p1156
sVFTC/BTC
p1157
S'https://coinmarketcap.com/currencies/feathercoin/'
p1158
sVGNO/ETH
p1159
S'https://coinmarketcap.com/currencies/gnosis-gno/'
p1160
sVSALT/ETH
p1161
S'https://coinmarketcap.com/currencies/salt/'
p1162
sVMER/BTC
p1163
S'https://coinmarketcap.com/currencies/mercury/'
p1164
sVTUSD/BTC
p1165
S'https://coinmarketcap.com/currencies/true-usd/'
p1166
sVLTC/USDT
p1167
S'https://coinmarketcap.com/currencies/litecoin/'
p1168
sVFCT/ETH
p1169
S'https://coinmarketcap.com/currencies/factom/'
p1170
sVXEM/BTC
p1171
S'https://coinmarketcap.com/currencies/nem/'
p1172
sVEMC2/BTC
p1173
S'https://coinmarketcap.com/currencies/einsteinium/'
p1174
sVBURST/BTC
p1175
S'https://coinmarketcap.com/currencies/burst/'
p1176
sVETH/USDT
p1177
S'https://coinmarketcap.com/currencies/ethereum/'
p1178
sVGRS/KRW
p1179
S'https://coinmarketcap.com/currencies/groestlcoin/'
p1180
sVWAVES/ETH
p1181
S'https://coinmarketcap.com/currencies/waves/'
p1182
sVXMR/USDT
p1183
S'https://coinmarketcap.com/currencies/monero/'
p1184
sVHMQ/ETH
p1185
S'https://coinmarketcap.com/currencies/humaniq/'
p1186
sVRDD/BTC
p1187
S'https://coinmarketcap.com/currencies/reddcoin/'
p1188
sVLSK/KRW
p1189
S'https://coinmarketcap.com/currencies/lisk/'
p1190
sVPTOY/BTC
p1191
S'https://coinmarketcap.com/currencies/patientory/'
p1192
sVNXT/USDT
p1193
S'https://coinmarketcap.com/currencies/nxt/'
p1194
sVXRP/USDT
p1195
S'https://coinmarketcap.com/currencies/ripple/'
p1196
sVARK/BTC
p1197
S'https://coinmarketcap.com/currencies/ark/'
p1198
sVLTC/BTC
p1199
S'https://coinmarketcap.com/currencies/litecoin/'
p1200
sVXVG/BTC
p1201
S'https://coinmarketcap.com/currencies/verge/'
p1202
sVENG/BTC
p1203
S'https://coinmarketcap.com/currencies/enigma-project/'
p1204
sVXEM/KRW
p1205
S'https://coinmarketcap.com/currencies/nem/'
p1206
sVETC/ETH
p1207
S'https://coinmarketcap.com/currencies/ethereum-classic/'
p1208
sVCVC/ETH
p1209
S'https://coinmarketcap.com/currencies/civic/'
p1210
sVEXCL/BTC
p1211
S'https://coinmarketcap.com/currencies/exclusivecoin/'
p1212
sVXMR/ETH
p1213
S'https://coinmarketcap.com/currencies/monero/'
p1214
sVNEO/ETH
p1215
S'https://coinmarketcap.com/currencies/neo/'
p1216
sVPOWR/ETH
p1217
S'https://coinmarketcap.com/currencies/power-ledger/'
p1218
sVXLM/ETH
p1219
S'https://coinmarketcap.com/currencies/stellar/'
p1220
sVEMC2/KRW
p1221
S'https://coinmarketcap.com/currencies/einsteinium/'
p1222
sVXRP/BTC
p1223
S'https://coinmarketcap.com/currencies/ripple/'
p1224
sVNXS/BTC
p1225
S'https://coinmarketcap.com/currencies/nexus/'
p1226
sVIOP/BTC
p1227
S'https://coinmarketcap.com/currencies/internet-of-people/'
p1228
sVNEO/KRW
p1229
S'https://coinmarketcap.com/currencies/neo/'
p1230
sVDASH/BTC
p1231
S'https://coinmarketcap.com/currencies/dash/'
p1232
sVADA/KRW
p1233
S'https://coinmarketcap.com/currencies/cardano/'
p1234
sVBCPT/ETH
p1235
S'https://coinmarketcap.com/currencies/blockmason/'
p1236
sVSC/ETH
p1237
S'https://coinmarketcap.com/currencies/siacoin/'
p1238
sVXZC/BTC
p1239
S'https://coinmarketcap.com/currencies/zcoin/'
p1240
sVSWT/BTC
p1241
S'https://coinmarketcap.com/currencies/swarm-city/'
p1242
sVVIB/BTC
p1243
S'https://coinmarketcap.com/currencies/viberate/'
p1244
sVETC/BTC
p1245
S'https://coinmarketcap.com/currencies/ethereum-classic/'
p1246
sVBNT/ETH
p1247
S'https://coinmarketcap.com/currencies/bancor/'
p1248
sVANT/ETH
p1249
S'https://coinmarketcap.com/currencies/aragon/'
p1250
sVMANA/BTC
p1251
S'https://coinmarketcap.com/currencies/decentraland/'
p1252
sVLSK/BTC
p1253
S'https://coinmarketcap.com/currencies/lisk/'
p1254
sVSTRAT/BTC
p1255
S'https://coinmarketcap.com/currencies/stratis/'
p1256
sVGNO/BTC
p1257
S'https://coinmarketcap.com/currencies/gnosis-gno/'
p1258
sVBLOCK/BTC
p1259
S'https://coinmarketcap.com/currencies/blocknet/'
p1260
sVTRX/BTC
p1261
S'https://coinmarketcap.com/currencies/tron/'
p1262
sVNEO/BTC
p1263
S'https://coinmarketcap.com/currencies/neo/'
p1264
sVSHIFT/BTC
p1265
S'https://coinmarketcap.com/currencies/shift/'
p1266
sVGRS/BTC
p1267
S'https://coinmarketcap.com/currencies/groestlcoin/'
p1268
sVETC/USDT
p1269
S'https://coinmarketcap.com/currencies/ethereum-classic/'
p1270
sVADA/BTC
p1271
S'https://coinmarketcap.com/currencies/cardano/'
p1272
sVXLM/KRW
p1273
S'https://coinmarketcap.com/currencies/stellar/'
p1274
sVUNB/BTC
p1275
S'https://coinmarketcap.com/currencies/unbreakablecoin/'
p1276
sVMANA/ETH
p1277
S'https://coinmarketcap.com/currencies/decentraland/'
p1278
sVARK/KRW
p1279
S'https://coinmarketcap.com/currencies/ark/'
p1280
sVQRL/BTC
p1281
S'https://coinmarketcap.com/currencies/quantum-resistant-ledger/'
p1282
sVADT/ETH
p1283
S'https://coinmarketcap.com/currencies/adtoken/'
p1284
sVLTC/KRW
p1285
S'https://coinmarketcap.com/currencies/litecoin/'
p1286
sVCVC/BTC
p1287
S'https://coinmarketcap.com/currencies/civic/'
p1288
sVXVG/USDT
p1289
S'https://coinmarketcap.com/currencies/verge/'
p1290
sVREP/ETH
p1291
S'https://coinmarketcap.com/currencies/augur/'
p1292
sVXLM/BTC
p1293
S'https://coinmarketcap.com/currencies/stellar/'
p1294
sVSYS/BTC
p1295
S'https://coinmarketcap.com/currencies/syscoin/'
p1296
sVXRP/KRW
p1297
S'https://coinmarketcap.com/currencies/ripple/'
p1298
sVCFI/BTC
p1299
S'https://coinmarketcap.com/currencies/cofound-it/'
p1300
sVBCPT/BTC
p1301
S'https://coinmarketcap.com/currencies/blockmason/'
p1302
sVSRN/ETH
p1303
S'https://coinmarketcap.com/currencies/sirin-labs-token/'
p1304
sVMONA/BTC
p1305
S'https://coinmarketcap.com/currencies/monacoin/'
p1306
sVRLC/BTC
p1307
S'https://coinmarketcap.com/currencies/rlc/'
p1308
sV1ST/BTC
p1309
S'https://coinmarketcap.com/currencies/firstblood/'
p1310
sVRLC/ETH
p1311
S'https://coinmarketcap.com/currencies/rlc/'
p1312
sVBTG/KRW
p1313
S'https://coinmarketcap.com/currencies/bitcoin-gold/'
p1314
sV1ST/ETH
p1315
S'https://coinmarketcap.com/currencies/firstblood/'
p1316
sVTIX/BTC
p1317
S'https://coinmarketcap.com/currencies/blocktix/'
p1318
sVLRC/BTC
p1319
S'https://coinmarketcap.com/currencies/loopring/'
p1320
sVQRL/ETH
p1321
S'https://coinmarketcap.com/currencies/quantum-resistant-ledger/'
p1322
sVMTL/KRW
p1323
S'https://coinmarketcap.com/currencies/metal/'
p1324
sVRCN/ETH
p1325
S'https://coinmarketcap.com/currencies/ripio-credit-network/'
p1326
sVMER/KRW
p1327
S'https://coinmarketcap.com/currencies/mercury/'
p1328
sVSYNX/BTC
p1329
S'https://coinmarketcap.com/currencies/syndicate/'
p1330
sVPIVX/KRW
p1331
S'https://coinmarketcap.com/currencies/pivx/'
p1332
sVOK/BTC
p1333
S'https://coinmarketcap.com/currencies/okcash/'
p1334
sVWINGS/ETH
p1335
S'https://coinmarketcap.com/currencies/wings/'
p1336
sVMEME/BTC
p1337
g1238
sVLTC/ETH
p1338
S'https://coinmarketcap.com/currencies/litecoin/'
p1339
sVADX/BTC
p1340
S'https://coinmarketcap.com/currencies/adx-net/'
p1341
sVVIA/BTC
p1342
S'https://coinmarketcap.com/currencies/viacoin/'
p1343
sVOMG/ETH
p1344
S'https://coinmarketcap.com/currencies/omisego/'
p1345
sVSTORJ/KRW
p1346
S'https://coinmarketcap.com/currencies/storj/'
p1347
sVOMG/BTC
p1348
S'https://coinmarketcap.com/currencies/omisego/'
p1349
sVADT/BTC
p1350
S'https://coinmarketcap.com/currencies/adtoken/'
p1351
sVTX/BTC
p1352
S'https://coinmarketcap.com/currencies/transfercoin/'
p1353
sVDASH/USDT
p1354
S'https://coinmarketcap.com/currencies/dash/'
p1355
sVXMR/KRW
p1356
S'https://coinmarketcap.com/currencies/monero/'
p1357
sVETC/KRW
p1358
S'https://coinmarketcap.com/currencies/ethereum-classic/'
p1359
sVTIX/KRW
p1360
S'https://coinmarketcap.com/currencies/blocktix/'
p1361
sVDGB/ETH
p1362
S'https://coinmarketcap.com/currencies/digibyte/'
p1363
sVIGNIS/BTC
p1364
S'https://coinmarketcap.com/currencies/ignis/'
p1365
sVDASH/KRW
p1366
S'https://coinmarketcap.com/currencies/dash/'
p1367
sVREP/BTC
p1368
S'https://coinmarketcap.com/currencies/augur/'
p1369
sVUKG/BTC
p1370
S'https://coinmarketcap.com/currencies/unikoin-gold/'
p1371
sVPTOY/ETH
p1372
S'https://coinmarketcap.com/currencies/patientory/'
p1373
sVSTEEM/BTC
p1374
S'https://coinmarketcap.com/currencies/steem/'
p1375
sVZEC/KRW
p1376
S'https://coinmarketcap.com/currencies/zcash/'
p1377
sVSALT/BTC
p1378
S'https://coinmarketcap.com/currencies/salt/'
p1379
sVMCO/ETH
p1380
S'https://coinmarketcap.com/currencies/monaco/'
p1381
sVHMQ/BTC
p1382
S'https://coinmarketcap.com/currencies/humaniq/'
p1383
sVXRP/ETH
p1384
S'https://coinmarketcap.com/currencies/ripple/'
p1385
sVSTEEM/KRW
p1386
S'https://coinmarketcap.com/currencies/steem/'
p1387
sVADX/ETH
p1388
S'https://coinmarketcap.com/currencies/adx-net/'
p1389
sVBITB/BTC
p1390
S'https://coinmarketcap.com/currencies/bean-cash/'
p1391
sVWAVES/KRW
p1392
S'https://coinmarketcap.com/currencies/waves/'
p1393
sVARDR/BTC
p1394
S'https://coinmarketcap.com/currencies/ardor/'
p1395
sVSRN/BTC
p1396
S'https://coinmarketcap.com/currencies/sirin-labs-token/'
p1397
sVZRX/BTC
p1398
S'https://coinmarketcap.com/currencies/0x/'
p1399
sVWAX/ETH
p1400
S'https://coinmarketcap.com/currencies/wax/'
p1401
sVGNT/BTC
p1402
S'https://coinmarketcap.com/currencies/golem-network-tokens/'
p1403
sVFCT/BTC
p1404
S'https://coinmarketcap.com/currencies/factom/'
p1405
sVREP/KRW
p1406
S'https://coinmarketcap.com/currencies/augur/'
p1407
sVZEC/BTC
p1408
S'https://coinmarketcap.com/currencies/zcash/'
p1409
sVANT/BTC
p1410
S'https://coinmarketcap.com/currencies/aragon/'
p1411
sVBTC/KRW
p1412
S'https://coinmarketcap.com/currencies/bitcoin/'
p1413
sVGAME/BTC
p1414
S'https://coinmarketcap.com/currencies/gamecredits/'
p1415
sVUBQ/BTC
p1416
S'https://coinmarketcap.com/currencies/ubiq/'
p1417
sVBTG/USDT
p1418
S'https://coinmarketcap.com/currencies/bitcoin-gold/'
p1419
sVSTORJ/ETH
p1420
S'https://coinmarketcap.com/currencies/storj/'
p1421
sVSTORJ/BTC
p1422
S'https://coinmarketcap.com/currencies/storj/'
p1423
sVDYN/BTC
p1424
S'https://coinmarketcap.com/currencies/dynamic/'
p1425
sVBCC/USDT
p1426
S'https://coinmarketcap.com/currencies/bitcoin-cash/'
p1427
sVCLOAK/BTC
p1428
S'https://coinmarketcap.com/currencies/cloakcoin/'
p1429
sVSLS/BTC
p1430
S'https://coinmarketcap.com/currencies/salus/'
p1431
sVTRX/ETH
p1432
S'https://coinmarketcap.com/currencies/tron/'
p1433
sVNXT/BTC
p1434
S'https://coinmarketcap.com/currencies/nxt/'
p1435
sVPOWR/KRW
p1436
S'https://coinmarketcap.com/currencies/power-ledger/'
p1437
sVAMP/BTC
p1438
S'https://coinmarketcap.com/currencies/synereo/'
p1439
sVBLK/BTC
p1440
S'https://coinmarketcap.com/currencies/blackcoin/'
p1441
sVCFI/ETH
p1442
S'https://coinmarketcap.com/currencies/cofound-it/'
p1443
sVRCN/BTC
p1444
S'https://coinmarketcap.com/currencies/ripio-credit-network/'
p1445
sVWAX/BTC
p1446
S'https://coinmarketcap.com/currencies/wax/'
p1447
sVBAT/ETH
p1448
S'https://coinmarketcap.com/currencies/basic-attention-token/'
p1449
sVSBD/BTC
p1450
S'https://coinmarketcap.com/currencies/steem-dollars/'
p1451
sVEXP/BTC
p1452
S'https://coinmarketcap.com/currencies/expanse/'
p1453
sVBSD/BTC
p1454
S'https://coinmarketcap.com/currencies/bitsend/'
p1455
sVZEC/USDT
p1456
S'https://coinmarketcap.com/currencies/zcash/'
p1457
sVNBT/BTC
p1458
S'https://coinmarketcap.com/currencies/nubits/'
p1459
sVBCC/KRW
p1460
S'https://coinmarketcap.com/currencies/bitcoin-cash/'
p1461
sVARDR/KRW
p1462
S'https://coinmarketcap.com/currencies/ardor/'
p1463
sVBTG/ETH
p1464
S'https://coinmarketcap.com/currencies/bitcoin-gold/'
p1465
sVGUP/ETH
p1466
S'https://coinmarketcap.com/currencies/guppy/'
p1467
sVPOWR/BTC
p1468
S'https://coinmarketcap.com/currencies/power-ledger/'
p1469
sVXEL/BTC
p1470
S'https://coinmarketcap.com/currencies/elastic/'
p1471
sVAGRS/BTC
p1472
S'https://coinmarketcap.com/currencies/agoras-tokens/'
p1473
sVDOGE/BTC
p1474
S'https://coinmarketcap.com/currencies/dogecoin/'
p1475
sVZEC/ETH
p1476
S'https://coinmarketcap.com/currencies/zcash/'
p1477
sVSNT/BTC
p1478
S'https://coinmarketcap.com/currencies/status/'
p1479
sVSIB/BTC
p1480
S'https://coinmarketcap.com/currencies/sibcoin/'
p1481
sVLRC/ETH
p1482
S'https://coinmarketcap.com/currencies/loopring/'
p1483
sVZRX/ETH
p1484
S'https://coinmarketcap.com/currencies/0x/'
p1485
sVNEO/USDT
p1486
S'https://coinmarketcap.com/currencies/neo/'
p1487
sVMemetic / PepeCoin
p1488
g1238
sVDNT/BTC
p1489
S'https://coinmarketcap.com/currencies/district0x/'
p1490
sVMUE/BTC
p1491
S'https://coinmarketcap.com/currencies/monetaryunit/'
p1492
sVNMR/BTC
p1493
S'https://coinmarketcap.com/currencies/numeraire/'
p1494
sVVIB/ETH
p1495
S'https://coinmarketcap.com/currencies/viberate/'
p1496
sVSTRAT/ETH
p1497
S'https://coinmarketcap.com/currencies/stratis/'
p1498
ssS'OKEx'
p1499
(dp1500
VMDA/BTC
p1501
S'https://coinmarketcap.com/currencies/moeda-loyalty-points/'
p1502
sVPST/ETH
p1503
S'https://coinmarketcap.com/currencies/primas/'
p1504
sVSNT/USDT
p1505
S'https://coinmarketcap.com/currencies/status/'
p1506
sVSUB/BTC
p1507
S'https://coinmarketcap.com/currencies/substratum/'
p1508
sVBKX/ETH
p1509
S'https://coinmarketcap.com/currencies/bankex/'
p1510
sVXEM/USDT
p1511
S'https://coinmarketcap.com/currencies/nem/'
p1512
sVTHETA/BTC
p1513
S'https://coinmarketcap.com/currencies/theta-token/'
p1514
sVRFR/USDT
p1515
S'https://coinmarketcap.com/currencies/refereum/'
p1516
sVBNT/BTC
p1517
S'https://coinmarketcap.com/currencies/bancor/'
p1518
sVCTR/USDT
p1519
S'https://coinmarketcap.com/currencies/centra/'
p1520
sVSSC/USDT
p1521
S'https://coinmarketcap.com/currencies/selfsell/'
p1522
sVPPT/BTC
p1523
S'https://coinmarketcap.com/currencies/populous/'
p1524
sVUTK/ETH
p1525
S'https://coinmarketcap.com/currencies/utrust/'
p1526
sVMAG/ETH
p1527
S'https://coinmarketcap.com/currencies/maggie/'
p1528
sVUBTC/ETH
p1529
S'https://coinmarketcap.com/currencies/united-bitcoin/'
p1530
sVETH/BTC
p1531
S'https://coinmarketcap.com/currencies/ethereum/'
p1532
sVREAD/ETH
p1533
S'https://coinmarketcap.com/currencies/read/'
p1534
sVSALT/ETH
p1535
S'https://coinmarketcap.com/currencies/salt/'
p1536
sVSAN/USDT
p1537
S'https://coinmarketcap.com/currencies/santiment/'
p1538
sVXUC/ETH
p1539
S'https://coinmarketcap.com/currencies/exchange-union/'
p1540
sVPAY/BTC
p1541
S'https://coinmarketcap.com/currencies/tenx/'
p1542
sVRNT/ETH
p1543
S'https://coinmarketcap.com/currencies/oneroot-network/'
p1544
sVMKR/ETH
p1545
S'https://coinmarketcap.com/currencies/maker/'
p1546
sVWTC/BTC
p1547
S'https://coinmarketcap.com/currencies/waltonchain/'
p1548
sVMTH/USDT
p1549
S'https://coinmarketcap.com/currencies/monetha/'
p1550
sVICN/USDT
p1551
S'https://coinmarketcap.com/currencies/iconomi/'
p1552
sVLTC/USDT
p1553
S'https://coinmarketcap.com/currencies/litecoin/'
p1554
sVVIU/ETH
p1555
S'https://coinmarketcap.com/currencies/viuly/'
p1556
sVPST/BTC
p1557
S'https://coinmarketcap.com/currencies/primas/'
p1558
sVXUC/USDT
p1559
S'https://coinmarketcap.com/currencies/exchange-union/'
p1560
sVKEY/BTC
p1561
S'https://coinmarketcap.com/currencies/selfkey/'
p1562
sVXMR/USDT
p1563
S'https://coinmarketcap.com/currencies/monero/'
p1564
sVDNT/BTC
p1565
S'https://coinmarketcap.com/currencies/district0x/'
p1566
sVENJ/BTC
p1567
S'https://coinmarketcap.com/currencies/enjin-coin/'
p1568
sVYOYO/BTC
p1569
S'https://coinmarketcap.com/currencies/yoyow/'
p1570
sVXRP/USDT
p1571
S'https://coinmarketcap.com/currencies/ripple/'
p1572
sVFAIR/BTC
p1573
S'https://coinmarketcap.com/currencies/fairgame/'
p1574
sVENG/BTC
p1575
S'https://coinmarketcap.com/currencies/enigma-project/'
p1576
sVCMT/BCH
p1577
S'https://coinmarketcap.com/currencies/cybermiles/'
p1578
sVGNT/ETH
p1579
S'https://coinmarketcap.com/currencies/golem-network-tokens/'
p1580
sVSHOW/USDT
p1581
S'https://coinmarketcap.com/currencies/show/'
p1582
sVDASH/ETH
p1583
S'https://coinmarketcap.com/currencies/dash/'
p1584
sVGNX/USDT
p1585
S'https://coinmarketcap.com/currencies/genaro-network/'
p1586
sVTCT/BTC
p1587
S'https://coinmarketcap.com/currencies/tokenclub/'
p1588
sVYEE/ETH
p1589
S'https://coinmarketcap.com/currencies/yee/'
p1590
sVYOYO/USDT
p1591
S'https://coinmarketcap.com/currencies/yoyow/'
p1592
sVSMT/ETH
p1593
S'https://coinmarketcap.com/currencies/smartmesh/'
p1594
sVMOF/USDT
p1595
S'https://coinmarketcap.com/currencies/molecular-future/'
p1596
sVR/USDT
p1597
S'https://coinmarketcap.com/currencies/revain/'
p1598
sVDGD/USDT
p1599
S'https://coinmarketcap.com/currencies/digixdao/'
p1600
sVSBTC/BCH
p1601
S'https://coinmarketcap.com/currencies/super-bitcoin/'
p1602
sVKNC/USDT
p1603
S'https://coinmarketcap.com/currencies/kyber-network/'
p1604
sVVIB/BTC
p1605
S'https://coinmarketcap.com/currencies/viberate/'
p1606
sVETC/BTC
p1607
S'https://coinmarketcap.com/currencies/ethereum-classic/'
p1608
sVPOE/USDT
p1609
S'https://coinmarketcap.com/currencies/poet/'
p1610
sVDGB/BTC
p1611
S'https://coinmarketcap.com/currencies/digibyte/'
p1612
sVTRX/BTC
p1613
S'https://coinmarketcap.com/currencies/tron/'
p1614
sVEOS/BTC
p1615
S'https://coinmarketcap.com/currencies/eos/'
p1616
sVREF/USDT
p1617
S'https://coinmarketcap.com/currencies/reftoken/'
p1618
sVMDT/USDT
p1619
S'https://coinmarketcap.com/currencies/measurable-data-token/'
p1620
sVOST/USDT
p1621
S'https://coinmarketcap.com/currencies/simple-token/'
p1622
sVINS/ETH
p1623
S'https://coinmarketcap.com/currencies/ins-ecosystem/'
p1624
sVSUB/ETH
p1625
S'https://coinmarketcap.com/currencies/substratum/'
p1626
sVDPY/BTC
p1627
S'https://coinmarketcap.com/currencies/delphy/'
p1628
sVXEM/ETH
p1629
S'https://coinmarketcap.com/currencies/nem/'
p1630
sVLRC/USDT
p1631
S'https://coinmarketcap.com/currencies/loopring/'
p1632
sVGTC/USDT
p1633
S'https://coinmarketcap.com/currencies/game/'
p1634
sVSOC/ETH
p1635
S'https://coinmarketcap.com/currencies/all-sports/'
p1636
sVBCH/ETH
p1637
S'https://coinmarketcap.com/currencies/bitcoin-cash/'
p1638
sVKCASH/USDT
p1639
S'https://coinmarketcap.com/currencies/kcash/'
p1640
sVTRX/USDT
p1641
S'https://coinmarketcap.com/currencies/tron/'
p1642
sVATL/USDT
p1643
S'https://coinmarketcap.com/currencies/atlant/'
p1644
sVELF/BTC
p1645
S'https://coinmarketcap.com/currencies/aelf/'
p1646
sVSWFTC/USDT
p1647
S'https://coinmarketcap.com/currencies/swftcoin/'
p1648
sVLINK/ETH
p1649
S'https://coinmarketcap.com/currencies/chainlink/'
p1650
sVHSR/BTC
p1651
S'https://coinmarketcap.com/currencies/hshare/'
p1652
sVXMR/BTC
p1653
S'https://coinmarketcap.com/currencies/monero/'
p1654
sVAVT/BCH
p1655
S'https://coinmarketcap.com/currencies/aventus/'
p1656
sVINT/BTC
p1657
S'https://coinmarketcap.com/currencies/internet-node-token/'
p1658
sVPRA/ETH
p1659
S'https://coinmarketcap.com/currencies/prochain/'
p1660
sVUKG/BTC
p1661
S'https://coinmarketcap.com/currencies/unikoin-gold/'
p1662
sVDGD/BTC
p1663
S'https://coinmarketcap.com/currencies/digixdao/'
p1664
sVEVX/BTC
p1665
S'https://coinmarketcap.com/currencies/everex/'
p1666
sVCHAT/ETH
p1667
S'https://coinmarketcap.com/currencies/chatcoin/'
p1668
sVHOT/BTC
p1669
S'https://coinmarketcap.com/currencies/hydro-protocol/'
p1670
sVNANO/USDT
p1671
S'https://coinmarketcap.com/currencies/nano/'
p1672
sVGNT/BTC
p1673
S'https://coinmarketcap.com/currencies/golem-network-tokens/'
p1674
sVEDO/BCH
p1675
S'https://coinmarketcap.com/currencies/eidoo/'
p1676
sVCMT/BTC
p1677
S'https://coinmarketcap.com/currencies/cybermiles/'
p1678
sVTOPC/BTC
p1679
S'https://coinmarketcap.com/currencies/topchain/'
p1680
sVLA/ETH
p1681
S'https://coinmarketcap.com/currencies/latoken/'
p1682
sVREAD/USDT
p1683
S'https://coinmarketcap.com/currencies/read/'
p1684
sVTNB/BTC
p1685
S'https://coinmarketcap.com/currencies/time-new-bank/'
p1686
sVSNGLS/BTC
p1687
S'https://coinmarketcap.com/currencies/singulardtv/'
p1688
sVVEE/USDT
p1689
S'https://coinmarketcap.com/currencies/blockv/'
p1690
sVTHETA/USDT
p1691
S'https://coinmarketcap.com/currencies/theta-token/'
p1692
sVRCT/ETH
p1693
S'https://coinmarketcap.com/currencies/realchain/'
p1694
sVRCN/BTC
p1695
S'https://coinmarketcap.com/currencies/ripio-credit-network/'
p1696
sVSNM/BTC
p1697
S'https://coinmarketcap.com/currencies/sonm/'
p1698
sVWRC/ETH
p1699
S'https://coinmarketcap.com/currencies/worldcore/'
p1700
sVABT/USDT
p1701
S'https://coinmarketcap.com/currencies/arcblock/'
p1702
sVDPY/USDT
p1703
S'https://coinmarketcap.com/currencies/delphy/'
p1704
sVSTORJ/USDT
p1705
S'https://coinmarketcap.com/currencies/storj/'
p1706
sVNULS/USDT
p1707
S'https://coinmarketcap.com/currencies/nuls/'
p1708
sVBT2/BTC
p1709
S'https://coinmarketcap.com/currencies/bt2-cst/'
p1710
sVNAS/BTC
p1711
S'https://coinmarketcap.com/currencies/nebulas-token/'
p1712
sVGNX/BTC
p1713
S'https://coinmarketcap.com/currencies/genaro-network/'
p1714
sVPOE/BTC
p1715
S'https://coinmarketcap.com/currencies/poet/'
p1716
sVLIGHT/BTC
p1717
S'https://coinmarketcap.com/currencies/lightchain/'
p1718
sVEOS/BCH
p1719
S'https://coinmarketcap.com/currencies/eos/'
p1720
sVWRC/USDT
p1721
S'https://coinmarketcap.com/currencies/worldcore/'
p1722
sVLEND/ETH
p1723
S'https://coinmarketcap.com/currencies/ethlend/'
p1724
sVMKR/BTC
p1725
S'https://coinmarketcap.com/currencies/maker/'
p1726
sVAIDOC/BTC
p1727
S'https://coinmarketcap.com/currencies/aidoc/'
p1728
sVBTM/USDT
p1729
S'https://coinmarketcap.com/currencies/bytom/'
p1730
sVBTC/USDT
p1731
S'https://coinmarketcap.com/currencies/bitcoin/'
p1732
sVIOTA/BTC
p1733
S'https://coinmarketcap.com/currencies/iota/'
p1734
sVR/ETH
p1735
S'https://coinmarketcap.com/currencies/revain/'
p1736
sVIOTA/USDT
p1737
S'https://coinmarketcap.com/currencies/iota/'
p1738
sVACE/USDT
p1739
S'https://coinmarketcap.com/currencies/ace/'
p1740
sVACE/ETH
p1741
S'https://coinmarketcap.com/currencies/ace/'
p1742
sVEVX/USDT
p1743
S'https://coinmarketcap.com/currencies/everex/'
p1744
sVPPT/ETH
p1745
S'https://coinmarketcap.com/currencies/populous/'
p1746
sVSOC/USDT
p1747
S'https://coinmarketcap.com/currencies/all-sports/'
p1748
sVPRA/USDT
p1749
S'https://coinmarketcap.com/currencies/prochain/'
p1750
sV1ST/USDT
p1751
S'https://coinmarketcap.com/currencies/firstblood/'
p1752
sVREN/ETH
p1753
S'https://coinmarketcap.com/currencies/republic-protocol/'
p1754
sVQVT/USDT
p1755
S'https://coinmarketcap.com/currencies/qvolta/'
p1756
sVMCO/BTC
p1757
S'https://coinmarketcap.com/currencies/monaco/'
p1758
sVMDA/ETH
p1759
S'https://coinmarketcap.com/currencies/moeda-loyalty-points/'
p1760
sVFUN/BTC
p1761
S'https://coinmarketcap.com/currencies/funfair/'
p1762
sVKCASH/ETH
p1763
S'https://coinmarketcap.com/currencies/kcash/'
p1764
sVCAG/USDT
p1765
S'https://coinmarketcap.com/currencies/change/'
p1766
sVSHOW/BTC
p1767
S'https://coinmarketcap.com/currencies/show/'
p1768
sVREN/USDT
p1769
S'https://coinmarketcap.com/currencies/republic-protocol/'
p1770
sVXEM/BTC
p1771
S'https://coinmarketcap.com/currencies/nem/'
p1772
sVGAS/USDT
p1773
S'https://coinmarketcap.com/currencies/gas/'
p1774
sVAUTO/USDT
p1775
S'https://coinmarketcap.com/currencies/cube/'
p1776
sVIPC/BTC
p1777
S'https://coinmarketcap.com/currencies/ipchain/'
p1778
sVZRX/ETH
p1779
S'https://coinmarketcap.com/currencies/0x/'
p1780
sVARK/USDT
p1781
S'https://coinmarketcap.com/currencies/ark/'
p1782
sVMAG/USDT
p1783
S'https://coinmarketcap.com/currencies/maggie/'
p1784
sVELF/USDT
p1785
S'https://coinmarketcap.com/currencies/aelf/'
p1786
sVARK/BTC
p1787
S'https://coinmarketcap.com/currencies/ark/'
p1788
sVLTC/BTC
p1789
S'https://coinmarketcap.com/currencies/litecoin/'
p1790
sVDNT/USDT
p1791
S'https://coinmarketcap.com/currencies/district0x/'
p1792
sVMTL/BTC
p1793
S'https://coinmarketcap.com/currencies/metal/'
p1794
sVXMR/ETH
p1795
S'https://coinmarketcap.com/currencies/monero/'
p1796
sVUKG/USDT
p1797
S'https://coinmarketcap.com/currencies/unikoin-gold/'
p1798
sVIPC/USDT
p1799
S'https://coinmarketcap.com/currencies/ipchain/'
p1800
sVYEE/USDT
p1801
S'https://coinmarketcap.com/currencies/yee/'
p1802
sVRDN/BTC
p1803
S'https://coinmarketcap.com/currencies/raiden-network-token/'
p1804
sVMCO/USDT
p1805
S'https://coinmarketcap.com/currencies/monaco/'
p1806
sVICX/BTC
p1807
S'https://coinmarketcap.com/currencies/icon/'
p1808
sVBTG/BCH
p1809
S'https://coinmarketcap.com/currencies/bitcoin-gold/'
p1810
sVMANA/USDT
p1811
S'https://coinmarketcap.com/currencies/decentraland/'
p1812
sVAST/ETH
p1813
S'https://coinmarketcap.com/currencies/airswap/'
p1814
sVDNA/USDT
p1815
S'https://coinmarketcap.com/currencies/encrypgen/'
p1816
sVNGC/BTC
p1817
S'https://coinmarketcap.com/currencies/naga/'
p1818
sVETC/USDT
p1819
S'https://coinmarketcap.com/currencies/ethereum-classic/'
p1820
sVRNT/BTC
p1821
S'https://coinmarketcap.com/currencies/oneroot-network/'
p1822
sVRFR/ETH
p1823
S'https://coinmarketcap.com/currencies/refereum/'
p1824
sVMOT/USDT
p1825
S'https://coinmarketcap.com/currencies/olympus-labs/'
p1826
sVRDN/USDT
p1827
S'https://coinmarketcap.com/currencies/raiden-network-token/'
p1828
sVACE/BTC
p1829
S'https://coinmarketcap.com/currencies/ace/'
p1830
sVMOT/BTC
p1831
S'https://coinmarketcap.com/currencies/olympus-labs/'
p1832
sVAMM/BTC
p1833
S'https://coinmarketcap.com/currencies/micromoney/'
p1834
sVXLM/BTC
p1835
S'https://coinmarketcap.com/currencies/stellar/'
p1836
sVTRUE/BTC
p1837
S'https://coinmarketcap.com/currencies/true-chain/'
p1838
sVDGD/ETH
p1839
S'https://coinmarketcap.com/currencies/digixdao/'
p1840
sVNULS/ETH
p1841
S'https://coinmarketcap.com/currencies/nuls/'
p1842
sVTNB/ETH
p1843
S'https://coinmarketcap.com/currencies/time-new-bank/'
p1844
sV1ST/BTC
p1845
S'https://coinmarketcap.com/currencies/firstblood/'
p1846
sVHMC/BTC
p1847
S'https://coinmarketcap.com/currencies/hi-mutual-society/'
p1848
sVDPY/ETH
p1849
S'https://coinmarketcap.com/currencies/delphy/'
p1850
sVIOST/ETH
p1851
S'https://coinmarketcap.com/currencies/iostoken/'
p1852
sVKEY/ETH
p1853
S'https://coinmarketcap.com/currencies/selfkey/'
p1854
sVQVT/BTC
p1855
S'https://coinmarketcap.com/currencies/qvolta/'
p1856
sVBTM/ETH
p1857
S'https://coinmarketcap.com/currencies/bytom/'
p1858
sVNANO/BTC
p1859
S'https://coinmarketcap.com/currencies/nano/'
p1860
sVSPF/BTC
p1861
S'https://coinmarketcap.com/currencies/sportyco/'
p1862
sVSNM/USDT
p1863
S'https://coinmarketcap.com/currencies/sonm/'
p1864
sVCAN/USDT
p1865
S'https://coinmarketcap.com/currencies/content-and-ad-network/'
p1866
sVDASH/USDT
p1867
S'https://coinmarketcap.com/currencies/dash/'
p1868
sVOAX/BTC
p1869
S'https://coinmarketcap.com/currencies/oax/'
p1870
sVBCX/BTC
p1871
S'https://coinmarketcap.com/currencies/bitcoinx/'
p1872
sVICN/BTC
p1873
S'https://coinmarketcap.com/currencies/iconomi/'
p1874
sVSALT/USDT
p1875
S'https://coinmarketcap.com/currencies/salt/'
p1876
sVXUC/BTC
p1877
S'https://coinmarketcap.com/currencies/exchange-union/'
p1878
sVHSR/USDT
p1879
S'https://coinmarketcap.com/currencies/hshare/'
p1880
sVYOYO/ETH
p1881
S'https://coinmarketcap.com/currencies/yoyow/'
p1882
sVETC/ETH
p1883
S'https://coinmarketcap.com/currencies/ethereum-classic/'
p1884
sVDGD/BCH
p1885
S'https://coinmarketcap.com/currencies/digixdao/'
p1886
sVXRP/ETH
p1887
S'https://coinmarketcap.com/currencies/ripple/'
p1888
sVVIU/BTC
p1889
S'https://coinmarketcap.com/currencies/viuly/'
p1890
sVLINK/BTC
p1891
S'https://coinmarketcap.com/currencies/chainlink/'
p1892
sVDASH/BCH
p1893
S'https://coinmarketcap.com/currencies/dash/'
p1894
sVQTUM/USDT
p1895
S'https://coinmarketcap.com/currencies/qtum/'
p1896
sVELF/ETH
p1897
S'https://coinmarketcap.com/currencies/aelf/'
p1898
sVIOST/USDT
p1899
S'https://coinmarketcap.com/currencies/iostoken/'
p1900
sVUGC/BTC
p1901
S'https://coinmarketcap.com/currencies/ugchain/'
p1902
sVKEY/USDT
p1903
S'https://coinmarketcap.com/currencies/selfkey/'
p1904
sVDENT/BTC
p1905
S'https://coinmarketcap.com/currencies/dent/'
p1906
sVUTK/BTC
p1907
S'https://coinmarketcap.com/currencies/utrust/'
p1908
sVSOC/BTC
p1909
S'https://coinmarketcap.com/currencies/all-sports/'
p1910
sVKNC/ETH
p1911
S'https://coinmarketcap.com/currencies/kyber-network/'
p1912
sVSBTC/BTC
p1913
S'https://coinmarketcap.com/currencies/super-bitcoin/'
p1914
sVMOF/ETH
p1915
S'https://coinmarketcap.com/currencies/molecular-future/'
p1916
sVWRC/BTC
p1917
S'https://coinmarketcap.com/currencies/worldcore/'
p1918
sVUBTC/USDT
p1919
S'https://coinmarketcap.com/currencies/united-bitcoin/'
p1920
sVLIGHT/ETH
p1921
S'https://coinmarketcap.com/currencies/lightchain/'
p1922
sVLRC/ETH
p1923
S'https://coinmarketcap.com/currencies/loopring/'
p1924
sVNEO/USDT
p1925
S'https://coinmarketcap.com/currencies/neo/'
p1926
sVTIO/USDT
p1927
S'https://coinmarketcap.com/currencies/trade-token/'
p1928
sVOAX/USDT
p1929
S'https://coinmarketcap.com/currencies/oax/'
p1930
sVMTH/ETH
p1931
S'https://coinmarketcap.com/currencies/monetha/'
p1932
sVMTL/USDT
p1933
S'https://coinmarketcap.com/currencies/metal/'
p1934
sVPAY/ETH
p1935
S'https://coinmarketcap.com/currencies/tenx/'
p1936
sVSTC/USDT
p1937
S'https://coinmarketcap.com/currencies/starchain/'
p1938
sVOMG/USDT
p1939
S'https://coinmarketcap.com/currencies/omisego/'
p1940
sVLIGHT/USDT
p1941
S'https://coinmarketcap.com/currencies/lightchain/'
p1942
sVGTO/ETH
p1943
S'https://coinmarketcap.com/currencies/gifto/'
p1944
sVSNGLS/USDT
p1945
S'https://coinmarketcap.com/currencies/singulardtv/'
p1946
sVBRD/BTC
p1947
S'https://coinmarketcap.com/currencies/bread/'
p1948
sVBCH/USDT
p1949
S'https://coinmarketcap.com/currencies/bitcoin-cash/'
p1950
sVCTR/ETH
p1951
S'https://coinmarketcap.com/currencies/centra/'
p1952
sVPPT/USDT
p1953
S'https://coinmarketcap.com/currencies/populous/'
p1954
sVBCD/BTC
p1955
S'https://coinmarketcap.com/currencies/bitcoin-diamond/'
p1956
sVSWFTC/ETH
p1957
S'https://coinmarketcap.com/currencies/swftcoin/'
p1958
sVRDN/ETH
p1959
S'https://coinmarketcap.com/currencies/raiden-network-token/'
p1960
sVITC/USDT
p1961
S'https://coinmarketcap.com/currencies/iot-chain/'
p1962
sVTRUE/USDT
p1963
S'https://coinmarketcap.com/currencies/true-chain/'
p1964
sVENJ/ETH
p1965
S'https://coinmarketcap.com/currencies/enjin-coin/'
p1966
sVLA/USDT
p1967
S'https://coinmarketcap.com/currencies/latoken/'
p1968
sVUGC/USDT
p1969
S'https://coinmarketcap.com/currencies/ugchain/'
p1970
sVDENT/USDT
p1971
S'https://coinmarketcap.com/currencies/dent/'
p1972
sVMDT/BTC
p1973
S'https://coinmarketcap.com/currencies/measurable-data-token/'
p1974
sVVEE/BTC
p1975
S'https://coinmarketcap.com/currencies/blockv/'
p1976
sVAIDOC/USDT
p1977
S'https://coinmarketcap.com/currencies/aidoc/'
p1978
sVGTO/USDT
p1979
S'https://coinmarketcap.com/currencies/gifto/'
p1980
sVACT/ETH
p1981
S'https://coinmarketcap.com/currencies/achain/'
p1982
sVOST/ETH
p1983
S'https://coinmarketcap.com/currencies/simple-token/'
p1984
sVNAS/ETH
p1985
S'https://coinmarketcap.com/currencies/nebulas-token/'
p1986
sVZEN/ETH
p1987
S'https://coinmarketcap.com/currencies/zencash/'
p1988
sVCAN/ETH
p1989
S'https://coinmarketcap.com/currencies/content-and-ad-network/'
p1990
sVLEND/USDT
p1991
S'https://coinmarketcap.com/currencies/ethlend/'
p1992
sVDADI/BTC
p1993
S'https://coinmarketcap.com/currencies/dadi/'
p1994
sVENJ/USDT
p1995
S'https://coinmarketcap.com/currencies/enjin-coin/'
p1996
sVWTC/USDT
p1997
S'https://coinmarketcap.com/currencies/waltonchain/'
p1998
sVICX/ETH
p1999
S'https://coinmarketcap.com/currencies/icon/'
p2000
sVDGB/USDT
p2001
S'https://coinmarketcap.com/currencies/digibyte/'
p2002
sVACT/USDT
p2003
S'https://coinmarketcap.com/currencies/achain/'
p2004
sVABT/ETH
p2005
S'https://coinmarketcap.com/currencies/arcblock/'
p2006
sVLEV/BTC
p2007
S'https://coinmarketcap.com/currencies/leverj/'
p2008
sVSNC/ETH
p2009
S'https://coinmarketcap.com/currencies/suncontract/'
p2010
sVR/BTC
p2011
S'https://coinmarketcap.com/currencies/revain/'
p2012
sVIOTA/ETH
p2013
S'https://coinmarketcap.com/currencies/iota/'
p2014
sVXLM/USDT
p2015
S'https://coinmarketcap.com/currencies/stellar/'
p2016
sVEDO/ETH
p2017
S'https://coinmarketcap.com/currencies/eidoo/'
p2018
sVHMC/ETH
p2019
S'https://coinmarketcap.com/currencies/hi-mutual-society/'
p2020
sVSTC/ETH
p2021
S'https://coinmarketcap.com/currencies/starchain/'
p2022
sVRCT/BTC
p2023
S'https://coinmarketcap.com/currencies/realchain/'
p2024
sVLTC/BCH
p2025
S'https://coinmarketcap.com/currencies/litecoin/'
p2026
sVEOS/USDT
p2027
S'https://coinmarketcap.com/currencies/eos/'
p2028
sVQUN/USDT
p2029
S'https://coinmarketcap.com/currencies/qunqun/'
p2030
sVDAT/BTC
p2031
S'https://coinmarketcap.com/currencies/datum/'
p2032
sVACT/BCH
p2033
S'https://coinmarketcap.com/currencies/achain/'
p2034
sVPOE/ETH
p2035
S'https://coinmarketcap.com/currencies/poet/'
p2036
sVIPC/ETH
p2037
S'https://coinmarketcap.com/currencies/ipchain/'
p2038
sVREQ/BTC
p2039
S'https://coinmarketcap.com/currencies/request-network/'
p2040
sVMTL/ETH
p2041
S'https://coinmarketcap.com/currencies/metal/'
p2042
sVGTC/BTC
p2043
S'https://coinmarketcap.com/currencies/game/'
p2044
sVREQ/ETH
p2045
S'https://coinmarketcap.com/currencies/request-network/'
p2046
sVQUN/ETH
p2047
S'https://coinmarketcap.com/currencies/qunqun/'
p2048
sVNEO/BTC
p2049
S'https://coinmarketcap.com/currencies/neo/'
p2050
sVNGC/ETH
p2051
S'https://coinmarketcap.com/currencies/naga/'
p2052
sVCHAT/USDT
p2053
S'https://coinmarketcap.com/currencies/chatcoin/'
p2054
sVMOT/ETH
p2055
S'https://coinmarketcap.com/currencies/olympus-labs/'
p2056
sVGAS/BTC
p2057
S'https://coinmarketcap.com/currencies/gas/'
p2058
sVCVC/BTC
p2059
S'https://coinmarketcap.com/currencies/civic/'
p2060
sVBTM/BTC
p2061
S'https://coinmarketcap.com/currencies/bytom/'
p2062
sVCTR/BTC
p2063
S'https://coinmarketcap.com/currencies/centra/'
p2064
sVINT/USDT
p2065
S'https://coinmarketcap.com/currencies/internet-node-token/'
p2066
sVTHETA/ETH
p2067
S'https://coinmarketcap.com/currencies/theta-token/'
p2068
sVBKX/BTC
p2069
S'https://coinmarketcap.com/currencies/bankex/'
p2070
sVBNT/ETH
p2071
S'https://coinmarketcap.com/currencies/bancor/'
p2072
sVMOF/BTC
p2073
S'https://coinmarketcap.com/currencies/molecular-future/'
p2074
sV1ST/ETH
p2075
S'https://coinmarketcap.com/currencies/firstblood/'
p2076
sVICX/USDT
p2077
S'https://coinmarketcap.com/currencies/icon/'
p2078
sVLRC/BTC
p2079
S'https://coinmarketcap.com/currencies/loopring/'
p2080
sVGAS/ETH
p2081
S'https://coinmarketcap.com/currencies/gas/'
p2082
sVRCN/ETH
p2083
S'https://coinmarketcap.com/currencies/ripio-credit-network/'
p2084
sVWTC/ETH
p2085
S'https://coinmarketcap.com/currencies/waltonchain/'
p2086
sVDGB/ETH
p2087
S'https://coinmarketcap.com/currencies/digibyte/'
p2088
sVETC/BCH
p2089
S'https://coinmarketcap.com/currencies/ethereum-classic/'
p2090
sVREF/ETH
p2091
S'https://coinmarketcap.com/currencies/reftoken/'
p2092
sVPAY/USDT
p2093
S'https://coinmarketcap.com/currencies/tenx/'
p2094
sVNGC/USDT
p2095
S'https://coinmarketcap.com/currencies/naga/'
p2096
sVOMG/ETH
p2097
S'https://coinmarketcap.com/currencies/omisego/'
p2098
sVOAX/ETH
p2099
S'https://coinmarketcap.com/currencies/oax/'
p2100
sVSNT/ETH
p2101
S'https://coinmarketcap.com/currencies/status/'
p2102
sVTIO/ETH
p2103
S'https://coinmarketcap.com/currencies/trade-token/'
p2104
sVOF/ETH
p2105
S'https://coinmarketcap.com/currencies/ofcoin/'
p2106
sVSNGLS/ETH
p2107
S'https://coinmarketcap.com/currencies/singulardtv/'
p2108
sVAAC/BTC
p2109
S'https://coinmarketcap.com/currencies/acute-angle-cloud/'
p2110
sVAST/USDT
p2111
S'https://coinmarketcap.com/currencies/airswap/'
p2112
sVSALT/BTC
p2113
S'https://coinmarketcap.com/currencies/salt/'
p2114
sVOST/BTC
p2115
S'https://coinmarketcap.com/currencies/simple-token/'
p2116
sVMANA/ETH
p2117
S'https://coinmarketcap.com/currencies/decentraland/'
p2118
sVUTK/USDT
p2119
S'https://coinmarketcap.com/currencies/utrust/'
p2120
sVFAIR/ETH
p2121
S'https://coinmarketcap.com/currencies/fairgame/'
p2122
sVLTC/ETH
p2123
S'https://coinmarketcap.com/currencies/litecoin/'
p2124
sVQVT/ETH
p2125
S'https://coinmarketcap.com/currencies/qvolta/'
p2126
sVZEC/BTC
p2127
S'https://coinmarketcap.com/currencies/zcash/'
p2128
sVOF/USDT
p2129
S'https://coinmarketcap.com/currencies/ofcoin/'
p2130
sVMAG/BTC
p2131
S'https://coinmarketcap.com/currencies/maggie/'
p2132
sVARK/ETH
p2133
S'https://coinmarketcap.com/currencies/ark/'
p2134
sVSTORJ/BTC
p2135
S'https://coinmarketcap.com/currencies/storj/'
p2136
sVZRX/BTC
p2137
S'https://coinmarketcap.com/currencies/0x/'
p2138
sVTRX/ETH
p2139
S'https://coinmarketcap.com/currencies/tron/'
p2140
sVBCD/USDT
p2141
S'https://coinmarketcap.com/currencies/bitcoin-diamond/'
p2142
sVGNT/USDT
p2143
S'https://coinmarketcap.com/currencies/golem-network-tokens/'
p2144
sVEDO/BTC
p2145
S'https://coinmarketcap.com/currencies/eidoo/'
p2146
sVBCD/BCH
p2147
S'https://coinmarketcap.com/currencies/bitcoin-diamond/'
p2148
sVENG/ETH
p2149
S'https://coinmarketcap.com/currencies/enigma-project/'
p2150
sVFUN/USDT
p2151
S'https://coinmarketcap.com/currencies/funfair/'
p2152
sVCAG/ETH
p2153
S'https://coinmarketcap.com/currencies/change/'
p2154
sVXRP/BTC
p2155
S'https://coinmarketcap.com/currencies/ripple/'
p2156
sVZEC/USDT
p2157
S'https://coinmarketcap.com/currencies/zcash/'
p2158
sVSPF/ETH
p2159
S'https://coinmarketcap.com/currencies/sportyco/'
p2160
sVTNB/USDT
p2161
S'https://coinmarketcap.com/currencies/time-new-bank/'
p2162
sVAVT/ETH
p2163
S'https://coinmarketcap.com/currencies/aventus/'
p2164
sVZEC/ETH
p2165
S'https://coinmarketcap.com/currencies/zcash/'
p2166
sVDAT/USDT
p2167
S'https://coinmarketcap.com/currencies/datum/'
p2168
sVDNA/ETH
p2169
S'https://coinmarketcap.com/currencies/encrypgen/'
p2170
sVHOT/ETH
p2171
S'https://coinmarketcap.com/currencies/hydro-protocol/'
p2172
sVVIB/ETH
p2173
S'https://coinmarketcap.com/currencies/viberate/'
p2174
sVDAT/ETH
p2175
S'https://coinmarketcap.com/currencies/datum/'
p2176
sVNAS/USDT
p2177
S'https://coinmarketcap.com/currencies/nebulas-token/'
p2178
sVCMT/ETH
p2179
S'https://coinmarketcap.com/currencies/cybermiles/'
p2180
sVSPF/USDT
p2181
S'https://coinmarketcap.com/currencies/sportyco/'
p2182
sVAUTO/ETH
p2183
S'https://coinmarketcap.com/currencies/cube/'
p2184
sVTOPC/ETH
p2185
S'https://coinmarketcap.com/currencies/topchain/'
p2186
sVAMM/ETH
p2187
S'https://coinmarketcap.com/currencies/micromoney/'
p2188
sVSHOW/ETH
p2189
S'https://coinmarketcap.com/currencies/show/'
p2190
sVCAN/BTC
p2191
S'https://coinmarketcap.com/currencies/content-and-ad-network/'
p2192
sVSSC/ETH
p2193
S'https://coinmarketcap.com/currencies/selfsell/'
p2194
sVVEE/ETH
p2195
S'https://coinmarketcap.com/currencies/blockv/'
p2196
sVBKX/USDT
p2197
S'https://coinmarketcap.com/currencies/bankex/'
p2198
sVDASH/BTC
p2199
S'https://coinmarketcap.com/currencies/dash/'
p2200
sVSMT/BTC
p2201
S'https://coinmarketcap.com/currencies/smartmesh/'
p2202
sVSNC/USDT
p2203
S'https://coinmarketcap.com/currencies/suncontract/'
p2204
sVBCH/BTC
p2205
S'https://coinmarketcap.com/currencies/bitcoin-cash/'
p2206
sVDNT/ETH
p2207
S'https://coinmarketcap.com/currencies/district0x/'
p2208
sVRFR/BTC
p2209
S'https://coinmarketcap.com/currencies/refereum/'
p2210
sVPST/USDT
p2211
S'https://coinmarketcap.com/currencies/primas/'
p2212
sVEDO/USDT
p2213
S'https://coinmarketcap.com/currencies/eidoo/'
p2214
sVKNC/BTC
p2215
S'https://coinmarketcap.com/currencies/kyber-network/'
p2216
sVVIB/USDT
p2217
S'https://coinmarketcap.com/currencies/viberate/'
p2218
sVQTUM/BTC
p2219
S'https://coinmarketcap.com/currencies/qtum/'
p2220
sVBTG/BTC
p2221
S'https://coinmarketcap.com/currencies/bitcoin-gold/'
p2222
sVGTC/ETH
p2223
S'https://coinmarketcap.com/currencies/game/'
p2224
sVZEN/BTC
p2225
S'https://coinmarketcap.com/currencies/zencash/'
p2226
sVATL/ETH
p2227
S'https://coinmarketcap.com/currencies/atlant/'
p2228
sVSWFTC/BTC
p2229
S'https://coinmarketcap.com/currencies/swftcoin/'
p2230
sVSMT/USDT
p2231
S'https://coinmarketcap.com/currencies/smartmesh/'
p2232
sVREAD/BTC
p2233
S'https://coinmarketcap.com/currencies/read/'
p2234
sVVIU/USDT
p2235
S'https://coinmarketcap.com/currencies/viuly/'
p2236
sVHOT/USDT
p2237
S'https://coinmarketcap.com/currencies/hydro-protocol/'
p2238
sVSAN/BTC
p2239
S'https://coinmarketcap.com/currencies/santiment/'
p2240
sVLEND/BTC
p2241
S'https://coinmarketcap.com/currencies/ethlend/'
p2242
sVPRA/BTC
p2243
S'https://coinmarketcap.com/currencies/prochain/'
p2244
sVHMC/USDT
p2245
S'https://coinmarketcap.com/currencies/hi-mutual-society/'
p2246
sVETH/USDT
p2247
S'https://coinmarketcap.com/currencies/ethereum/'
p2248
sVSSC/BTC
p2249
S'https://coinmarketcap.com/currencies/selfsell/'
p2250
sVMDA/USDT
p2251
S'https://coinmarketcap.com/currencies/moeda-loyalty-points/'
p2252
sVNULS/BTC
p2253
S'https://coinmarketcap.com/currencies/nuls/'
p2254
sVABT/BTC
p2255
S'https://coinmarketcap.com/currencies/arcblock/'
p2256
sVAIDOC/ETH
p2257
S'https://coinmarketcap.com/currencies/aidoc/'
p2258
sVHSR/ETH
p2259
S'https://coinmarketcap.com/currencies/hshare/'
p2260
sVITC/ETH
p2261
S'https://coinmarketcap.com/currencies/iot-chain/'
p2262
sVUKG/ETH
p2263
S'https://coinmarketcap.com/currencies/unikoin-gold/'
p2264
sVREF/BTC
p2265
S'https://coinmarketcap.com/currencies/reftoken/'
p2266
sVAAC/ETH
p2267
S'https://coinmarketcap.com/currencies/acute-angle-cloud/'
p2268
sVCVC/ETH
p2269
S'https://coinmarketcap.com/currencies/civic/'
p2270
sVNEO/ETH
p2271
S'https://coinmarketcap.com/currencies/neo/'
p2272
sVXLM/ETH
p2273
S'https://coinmarketcap.com/currencies/stellar/'
p2274
sVEOS/ETH
p2275
S'https://coinmarketcap.com/currencies/eos/'
p2276
sVKCASH/BTC
p2277
S'https://coinmarketcap.com/currencies/kcash/'
p2278
sVMDT/ETH
p2279
S'https://coinmarketcap.com/currencies/measurable-data-token/'
p2280
sVAST/BTC
p2281
S'https://coinmarketcap.com/currencies/airswap/'
p2282
sVOF/BTC
p2283
S'https://coinmarketcap.com/currencies/ofcoin/'
p2284
sVREQ/USDT
p2285
S'https://coinmarketcap.com/currencies/request-network/'
p2286
sVCHAT/BTC
p2287
S'https://coinmarketcap.com/currencies/chatcoin/'
p2288
sVMANA/BTC
p2289
S'https://coinmarketcap.com/currencies/decentraland/'
p2290
sVTCT/ETH
p2291
S'https://coinmarketcap.com/currencies/tokenclub/'
p2292
sVCVC/USDT
p2293
S'https://coinmarketcap.com/currencies/civic/'
p2294
sVINS/USDT
p2295
S'https://coinmarketcap.com/currencies/ins-ecosystem/'
p2296
sVENG/USDT
p2297
S'https://coinmarketcap.com/currencies/enigma-project/'
p2298
sVINS/BTC
p2299
S'https://coinmarketcap.com/currencies/ins-ecosystem/'
p2300
sVAVT/USDT
p2301
S'https://coinmarketcap.com/currencies/aventus/'
p2302
sVRCN/USDT
p2303
S'https://coinmarketcap.com/currencies/ripio-credit-network/'
p2304
sVBRD/ETH
p2305
S'https://coinmarketcap.com/currencies/bread/'
p2306
sVUGC/ETH
p2307
S'https://coinmarketcap.com/currencies/ugchain/'
p2308
sVBRD/USDT
p2309
S'https://coinmarketcap.com/currencies/bread/'
p2310
sVGTO/BTC
p2311
S'https://coinmarketcap.com/currencies/gifto/'
p2312
sVRCT/USDT
p2313
S'https://coinmarketcap.com/currencies/realchain/'
p2314
sVCAG/BTC
p2315
S'https://coinmarketcap.com/currencies/change/'
p2316
sVDADI/USDT
p2317
S'https://coinmarketcap.com/currencies/dadi/'
p2318
sVSNC/BTC
p2319
S'https://coinmarketcap.com/currencies/suncontract/'
p2320
sVEVX/ETH
p2321
S'https://coinmarketcap.com/currencies/everex/'
p2322
sVSUB/USDT
p2323
S'https://coinmarketcap.com/currencies/substratum/'
p2324
sVLEV/ETH
p2325
S'https://coinmarketcap.com/currencies/leverj/'
p2326
sVIOST/BTC
p2327
S'https://coinmarketcap.com/currencies/iostoken/'
p2328
sVOMG/BTC
p2329
S'https://coinmarketcap.com/currencies/omisego/'
p2330
sVRNT/USDT
p2331
S'https://coinmarketcap.com/currencies/oneroot-network/'
p2332
sVMKR/USDT
p2333
S'https://coinmarketcap.com/currencies/maker/'
p2334
sVUBTC/BTC
p2335
S'https://coinmarketcap.com/currencies/united-bitcoin/'
p2336
sVAVT/BTC
p2337
S'https://coinmarketcap.com/currencies/aventus/'
p2338
sVREN/BTC
p2339
S'https://coinmarketcap.com/currencies/republic-protocol/'
p2340
sVBNT/USDT
p2341
S'https://coinmarketcap.com/currencies/bancor/'
p2342
sVBCX/BCH
p2343
S'https://coinmarketcap.com/currencies/bitcoinx/'
p2344
sVACT/BTC
p2345
S'https://coinmarketcap.com/currencies/achain/'
p2346
sVYEE/BTC
p2347
S'https://coinmarketcap.com/currencies/yee/'
p2348
sVATL/BTC
p2349
S'https://coinmarketcap.com/currencies/atlant/'
p2350
sVTCT/USDT
p2351
S'https://coinmarketcap.com/currencies/tokenclub/'
p2352
sVMCO/ETH
p2353
S'https://coinmarketcap.com/currencies/monaco/'
p2354
sVQUN/BTC
p2355
S'https://coinmarketcap.com/currencies/qunqun/'
p2356
sVMTH/BTC
p2357
S'https://coinmarketcap.com/currencies/monetha/'
p2358
sVTRUE/ETH
p2359
S'https://coinmarketcap.com/currencies/true-chain/'
p2360
sVGNX/ETH
p2361
S'https://coinmarketcap.com/currencies/genaro-network/'
p2362
sVTIO/BTC
p2363
S'https://coinmarketcap.com/currencies/trade-token/'
p2364
sVBTG/USDT
p2365
S'https://coinmarketcap.com/currencies/bitcoin-gold/'
p2366
sVSTORJ/ETH
p2367
S'https://coinmarketcap.com/currencies/storj/'
p2368
sVQTUM/ETH
p2369
S'https://coinmarketcap.com/currencies/qtum/'
p2370
sVNANO/ETH
p2371
S'https://coinmarketcap.com/currencies/nano/'
p2372
sVLEV/USDT
p2373
S'https://coinmarketcap.com/currencies/leverj/'
p2374
sVFAIR/USDT
p2375
S'https://coinmarketcap.com/currencies/fairgame/'
p2376
sVSNM/ETH
p2377
S'https://coinmarketcap.com/currencies/sonm/'
p2378
sVFUN/ETH
p2379
S'https://coinmarketcap.com/currencies/funfair/'
p2380
sVICN/ETH
p2381
S'https://coinmarketcap.com/currencies/iconomi/'
p2382
sVSTC/BTC
p2383
S'https://coinmarketcap.com/currencies/starchain/'
p2384
sVAAC/USDT
p2385
S'https://coinmarketcap.com/currencies/acute-angle-cloud/'
p2386
sVITC/BTC
p2387
S'https://coinmarketcap.com/currencies/iot-chain/'
p2388
sVDADI/ETH
p2389
S'https://coinmarketcap.com/currencies/dadi/'
p2390
sVAUTO/BTC
p2391
S'https://coinmarketcap.com/currencies/cube/'
p2392
sVDENT/ETH
p2393
S'https://coinmarketcap.com/currencies/dent/'
p2394
sVTOPC/USDT
p2395
S'https://coinmarketcap.com/currencies/topchain/'
p2396
sVCMT/USDT
p2397
S'https://coinmarketcap.com/currencies/cybermiles/'
p2398
sVZEN/USDT
p2399
S'https://coinmarketcap.com/currencies/zencash/'
p2400
sVAMM/USDT
p2401
S'https://coinmarketcap.com/currencies/micromoney/'
p2402
sVINT/ETH
p2403
S'https://coinmarketcap.com/currencies/internet-node-token/'
p2404
sVSNT/BTC
p2405
S'https://coinmarketcap.com/currencies/status/'
p2406
sVZRX/USDT
p2407
S'https://coinmarketcap.com/currencies/0x/'
p2408
sVSAN/ETH
p2409
S'https://coinmarketcap.com/currencies/santiment/'
p2410
sVLINK/USDT
p2411
S'https://coinmarketcap.com/currencies/chainlink/'
p2412
sVLA/BTC
p2413
S'https://coinmarketcap.com/currencies/latoken/'
p2414
sVDNA/BTC
p2415
S'https://coinmarketcap.com/currencies/encrypgen/'
p2416
ss.